
/bin/objdump:     file format elf64-x86-64


Disassembly of section .init:

0000000000008000 <.init>:
    8000:	f3 0f 1e fa          	endbr64 
    8004:	48 83 ec 08          	sub    $0x8,%rsp
    8008:	48 8b 05 b1 1f 05 00 	mov    0x51fb1(%rip),%rax        # 59fc0 <__gmon_start__@Base>
    800f:	48 85 c0             	test   %rax,%rax
    8012:	74 02                	je     8016 <error@@Base-0x5f2>
    8014:	ff d0                	call   *%rax
    8016:	48 83 c4 08          	add    $0x8,%rsp
    801a:	c3                   	ret    

Disassembly of section .text:

0000000000008020 <error@@Base-0x5e8>:
    8020:	4c 8d 25 6a 10 04 00 	lea    0x4106a(%rip),%r12        # 49091 <warn@@Base+0x3c65a>
    8027:	e9 ad 58 02 00       	jmp    2d8d9 <warn@@Base+0x20ea2>
    802c:	0f b6 0a             	movzbl (%rdx),%ecx
    802f:	48 83 c2 01          	add    $0x1,%rdx
    8033:	84 c9                	test   %cl,%cl
    8035:	74 7b                	je     80b2 <error@@Base-0x556>
    8037:	48 8b 1d b2 1f 05 00 	mov    0x51fb2(%rip),%rbx        # 59ff0 <warn@@Base+0x4d5b9>
    803e:	0f b6 f1             	movzbl %cl,%esi
    8041:	f6 04 73 02          	testb  $0x2,(%rbx,%rsi,2)
    8045:	75 09                	jne    8050 <error@@Base-0x5b8>
    8047:	80 f9 bf             	cmp    $0xbf,%cl
    804a:	0f 86 67 58 02 00    	jbe    2d8b7 <warn@@Base+0x20e80>
    8050:	4c 89 e7             	mov    %r12,%rdi
    8053:	ff 15 77 1b 05 00    	call   *0x51b77(%rip)        # 59bd0 <warn@@Base+0x4d199>
    8059:	48 8b 3d d0 5d 05 00 	mov    0x55dd0(%rip),%rdi        # 5de30 <warn@@Base+0x513f9>
    8060:	48 8d 2c c0          	lea    (%rax,%rax,8),%rbp
    8064:	48 3b 2d cd 5d 05 00 	cmp    0x55dcd(%rip),%rbp        # 5de38 <warn@@Base+0x51401>
    806b:	77 4a                	ja     80b7 <error@@Base-0x551>
    806d:	48 89 5c 24 10       	mov    %rbx,0x10(%rsp)
    8072:	48 89 fd             	mov    %rdi,%rbp
    8075:	4c 8d 3d e3 80 03 00 	lea    0x380e3(%rip),%r15        # 4015f <warn@@Base+0x33728>
    807c:	41 0f b6 04 24       	movzbl (%r12),%eax
    8081:	4d 8d 4c 24 01       	lea    0x1(%r12),%r9
    8086:	4c 89 0c 24          	mov    %r9,(%rsp)
    808a:	84 c0                	test   %al,%al
    808c:	74 59                	je     80e7 <error@@Base-0x521>
    808e:	4c 8b 5c 24 10       	mov    0x10(%rsp),%r11
    8093:	44 0f b6 d0          	movzbl %al,%r10d
    8097:	43 f6 04 53 02       	testb  $0x2,(%r11,%r10,2)
    809c:	74 59                	je     80f7 <error@@Base-0x511>
    809e:	83 c0 40             	add    $0x40,%eax
    80a1:	c6 45 00 5e          	movb   $0x5e,0x0(%rbp)
    80a5:	48 83 c5 02          	add    $0x2,%rbp
    80a9:	88 45 ff             	mov    %al,-0x1(%rbp)
    80ac:	4c 8b 24 24          	mov    (%rsp),%r12
    80b0:	eb ca                	jmp    807c <error@@Base-0x58c>
    80b2:	e9 22 58 02 00       	jmp    2d8d9 <warn@@Base+0x20ea2>
    80b7:	ff 15 bb 1c 05 00    	call   *0x51cbb(%rip)        # 59d78 <warn@@Base+0x4d341>
    80bd:	4c 89 e7             	mov    %r12,%rdi
    80c0:	ff 15 0a 1b 05 00    	call   *0x51b0a(%rip)        # 59bd0 <warn@@Base+0x4d199>
    80c6:	4c 8d 04 c0          	lea    (%rax,%rax,8),%r8
    80ca:	49 8d 78 01          	lea    0x1(%r8),%rdi
    80ce:	4c 89 05 63 5d 05 00 	mov    %r8,0x55d63(%rip)        # 5de38 <warn@@Base+0x51401>
    80d5:	ff 15 4d 1d 05 00    	call   *0x51d4d(%rip)        # 59e28 <warn@@Base+0x4d3f1>
    80db:	48 89 05 4e 5d 05 00 	mov    %rax,0x55d4e(%rip)        # 5de30 <warn@@Base+0x513f9>
    80e2:	48 89 c7             	mov    %rax,%rdi
    80e5:	eb 86                	jmp    806d <error@@Base-0x59b>
    80e7:	c6 45 00 00          	movb   $0x0,0x0(%rbp)
    80eb:	4c 8b 25 3e 5d 05 00 	mov    0x55d3e(%rip),%r12        # 5de30 <warn@@Base+0x513f9>
    80f2:	e9 e2 57 02 00       	jmp    2d8d9 <warn@@Base+0x20ea2>
    80f7:	8b 1d a3 5d 05 00    	mov    0x55da3(%rip),%ebx        # 5dea0 <warn@@Base+0x51469>
    80fd:	3c bf                	cmp    $0xbf,%al
    80ff:	76 04                	jbe    8105 <error@@Base-0x503>
    8101:	85 db                	test   %ebx,%ebx
    8103:	75 09                	jne    810e <error@@Base-0x4fa>
    8105:	88 45 00             	mov    %al,0x0(%rbp)
    8108:	48 83 c5 01          	add    $0x1,%rbp
    810c:	eb 9e                	jmp    80ac <error@@Base-0x55c>
    810e:	41 0f b6 54 24 01    	movzbl 0x1(%r12),%edx
    8114:	89 d1                	mov    %edx,%ecx
    8116:	83 e1 c0             	and    $0xffffffc0,%ecx
    8119:	80 f9 80             	cmp    $0x80,%cl
    811c:	74 1f                	je     813d <error@@Base-0x4cb>
    811e:	88 45 00             	mov    %al,0x0(%rbp)
    8121:	41 be 01 00 00 00    	mov    $0x1,%r14d
    8127:	41 bd 01 00 00 00    	mov    $0x1,%r13d
    812d:	41 8d 76 ff          	lea    -0x1(%r14),%esi
    8131:	4c 01 ed             	add    %r13,%rbp
    8134:	48 01 34 24          	add    %rsi,(%rsp)
    8138:	e9 6f ff ff ff       	jmp    80ac <error@@Base-0x55c>
    813d:	a8 20                	test   $0x20,%al
    813f:	74 47                	je     8188 <error@@Base-0x480>
    8141:	41 0f b6 54 24 02    	movzbl 0x2(%r12),%edx
    8147:	89 d1                	mov    %edx,%ecx
    8149:	83 e1 c0             	and    $0xffffffc0,%ecx
    814c:	80 f9 80             	cmp    $0x80,%cl
    814f:	75 cd                	jne    811e <error@@Base-0x4ea>
    8151:	a8 10                	test   $0x10,%al
    8153:	0f 84 e7 01 00 00    	je     8340 <error@@Base-0x2c8>
    8159:	41 0f b6 4c 24 03    	movzbl 0x3(%r12),%ecx
    815f:	89 ca                	mov    %ecx,%edx
    8161:	83 e2 c0             	and    $0xffffffc0,%edx
    8164:	80 fa 80             	cmp    $0x80,%dl
    8167:	75 b5                	jne    811e <error@@Base-0x4ea>
    8169:	44 8d 6b ff          	lea    -0x1(%rbx),%r13d
    816d:	41 83 fd 04          	cmp    $0x4,%r13d
    8171:	0f 87 67 02 00 00    	ja     83de <error@@Base-0x22a>
    8177:	4c 8d 35 d6 ab 03 00 	lea    0x3abd6(%rip),%r14        # 42d54 <warn@@Base+0x3631d>
    817e:	4b 63 34 ae          	movslq (%r14,%r13,4),%rsi
    8182:	4c 01 f6             	add    %r14,%rsi
    8185:	3e ff e6             	notrack jmp *%rsi
    8188:	8d 43 ff             	lea    -0x1(%rbx),%eax
    818b:	83 f8 04             	cmp    $0x4,%eax
    818e:	77 12                	ja     81a2 <error@@Base-0x466>
    8190:	4c 8d 15 d1 ab 03 00 	lea    0x3abd1(%rip),%r10        # 42d68 <warn@@Base+0x36331>
    8197:	4d 63 1c 82          	movslq (%r10,%rax,4),%r11
    819b:	4d 01 d3             	add    %r10,%r11
    819e:	3e 41 ff e3          	notrack jmp *%r11
    81a2:	49 89 ed             	mov    %rbp,%r13
    81a5:	41 be 02 00 00 00    	mov    $0x2,%r14d
    81ab:	41 29 ed             	sub    %ebp,%r13d
    81ae:	e9 7a ff ff ff       	jmp    812d <error@@Base-0x4db>
    81b3:	41 be 02 00 00 00    	mov    $0x2,%r14d
    81b9:	83 fb 03             	cmp    $0x3,%ebx
    81bc:	bb 7b 00 00 00       	mov    $0x7b,%ebx
    81c1:	48 89 ef             	mov    %rbp,%rdi
    81c4:	be 01 00 00 00       	mov    $0x1,%esi
    81c9:	41 b8 3c 00 00 00    	mov    $0x3c,%r8d
    81cf:	4c 8d 2d 86 7f 03 00 	lea    0x37f86(%rip),%r13        # 4015c <warn@@Base+0x33725>
    81d6:	44 0f 45 c3          	cmovne %ebx,%r8d
    81da:	4c 89 e9             	mov    %r13,%rcx
    81dd:	48 83 ca ff          	or     $0xffffffffffffffff,%rdx
    81e1:	31 c0                	xor    %eax,%eax
    81e3:	ff 15 47 1a 05 00    	call   *0x51a47(%rip)        # 59c30 <warn@@Base+0x4d1f9>
    81e9:	31 d2                	xor    %edx,%edx
    81eb:	c6 45 03 00          	movb   $0x0,0x3(%rbp)
    81ef:	48 8d 5d 03          	lea    0x3(%rbp),%rbx
    81f3:	66 c7 45 01 30 78    	movw   $0x7830,0x1(%rbp)
    81f9:	48 8d 0d 10 d0 03 00 	lea    0x3d010(%rip),%rcx        # 45210 <warn@@Base+0x387d9>
    8200:	48 89 6c 24 18       	mov    %rbp,0x18(%rsp)
    8205:	48 89 d5             	mov    %rdx,%rbp
    8208:	45 0f b6 04 2c       	movzbl (%r12,%rbp,1),%r8d
    820d:	48 83 c5 01          	add    $0x1,%rbp
    8211:	48 83 ca ff          	or     $0xffffffffffffffff,%rdx
    8215:	48 89 df             	mov    %rbx,%rdi
    8218:	31 c0                	xor    %eax,%eax
    821a:	be 01 00 00 00       	mov    $0x1,%esi
    821f:	ff 15 0b 1a 05 00    	call   *0x51a0b(%rip)        # 59c30 <warn@@Base+0x4d1f9>
    8225:	48 89 5c 24 08       	mov    %rbx,0x8(%rsp)
    822a:	48 83 c3 02          	add    $0x2,%rbx
    822e:	41 39 ee             	cmp    %ebp,%r14d
    8231:	48 8d 0d d8 cf 03 00 	lea    0x3cfd8(%rip),%rcx        # 45210 <warn@@Base+0x387d9>
    8238:	77 ce                	ja     8208 <error@@Base-0x400>
    823a:	4c 89 e9             	mov    %r13,%rcx
    823d:	48 8b 6c 24 18       	mov    0x18(%rsp),%rbp
    8242:	be 01 00 00 00       	mov    $0x1,%esi
    8247:	48 89 df             	mov    %rbx,%rdi
    824a:	83 3d 4f 5c 05 00 03 	cmpl   $0x3,0x55c4f(%rip)        # 5dea0 <warn@@Base+0x51469>
    8251:	41 b8 3e 00 00 00    	mov    $0x3e,%r8d
    8257:	41 bc 7d 00 00 00    	mov    $0x7d,%r12d
    825d:	45 0f 45 c4          	cmovne %r12d,%r8d
    8261:	48 83 ca ff          	or     $0xffffffffffffffff,%rdx
    8265:	31 c0                	xor    %eax,%eax
    8267:	ff 15 c3 19 05 00    	call   *0x519c3(%rip)        # 59c30 <warn@@Base+0x4d1f9>
    826d:	4c 8b 6c 24 08       	mov    0x8(%rsp),%r13
    8272:	49 83 c5 03          	add    $0x3,%r13
    8276:	e9 30 ff ff ff       	jmp    81ab <error@@Base-0x45d>
    827b:	49 89 ed             	mov    %rbp,%r13
    827e:	45 0f b6 04 24       	movzbl (%r12),%r8d
    8283:	83 e2 3f             	and    $0x3f,%edx
    8286:	4c 89 ef             	mov    %r13,%rdi
    8289:	be 01 00 00 00       	mov    $0x1,%esi
    828e:	31 c0                	xor    %eax,%eax
    8290:	49 83 c5 06          	add    $0x6,%r13
    8294:	41 89 de             	mov    %ebx,%r14d
    8297:	44 89 c1             	mov    %r8d,%ecx
    829a:	41 c1 f8 02          	sar    $0x2,%r8d
    829e:	c1 e1 06             	shl    $0x6,%ecx
    82a1:	41 83 e0 07          	and    $0x7,%r8d
    82a5:	44 0f b6 c9          	movzbl %cl,%r9d
    82a9:	4c 89 f9             	mov    %r15,%rcx
    82ac:	41 09 d1             	or     %edx,%r9d
    82af:	48 83 ca ff          	or     $0xffffffffffffffff,%rdx
    82b3:	ff 15 77 19 05 00    	call   *0x51977(%rip)        # 59c30 <warn@@Base+0x4d1f9>
    82b9:	83 3d e0 5b 05 00 04 	cmpl   $0x4,0x55be0(%rip)        # 5dea0 <warn@@Base+0x51469>
    82c0:	0f 85 e5 fe ff ff    	jne    81ab <error@@Base-0x45d>
    82c6:	bf 01 00 00 00       	mov    $0x1,%edi
    82cb:	ff 15 87 1c 05 00    	call   *0x51c87(%rip)        # 59f58 <warn@@Base+0x4d521>
    82d1:	85 c0                	test   %eax,%eax
    82d3:	0f 84 d2 fe ff ff    	je     81ab <error@@Base-0x45d>
    82d9:	41 c7 45 00 1b 5b 30 	movl   $0x6d305b1b,0x0(%r13)
    82e0:	6d 
    82e1:	49 83 c5 04          	add    $0x4,%r13
    82e5:	41 c6 45 00 00       	movb   $0x0,0x0(%r13)
    82ea:	e9 bc fe ff ff       	jmp    81ab <error@@Base-0x45d>
    82ef:	41 be 02 00 00 00    	mov    $0x2,%r14d
    82f5:	44 89 f1             	mov    %r14d,%ecx
    82f8:	48 89 ef             	mov    %rbp,%rdi
    82fb:	4c 89 e6             	mov    %r12,%rsi
    82fe:	f3 a4                	rep movsb %ds:(%rsi),%es:(%rdi)
    8300:	49 89 fd             	mov    %rdi,%r13
    8303:	e9 a3 fe ff ff       	jmp    81ab <error@@Base-0x45d>
    8308:	bb 02 00 00 00       	mov    $0x2,%ebx
    830d:	bf 01 00 00 00       	mov    $0x1,%edi
    8312:	49 89 ed             	mov    %rbp,%r13
    8315:	ff 15 3d 1c 05 00    	call   *0x51c3d(%rip)        # 59f58 <warn@@Base+0x4d521>
    831b:	85 c0                	test   %eax,%eax
    831d:	0f 85 5b 01 00 00    	jne    847e <error@@Base-0x18a>
    8323:	83 fb 03             	cmp    $0x3,%ebx
    8326:	0f 84 6d 01 00 00    	je     8499 <error@@Base-0x16f>
    832c:	83 fb 04             	cmp    $0x4,%ebx
    832f:	0f 84 6f 01 00 00    	je     84a4 <error@@Base-0x164>
    8335:	41 0f b6 54 24 01    	movzbl 0x1(%r12),%edx
    833b:	e9 3e ff ff ff       	jmp    827e <error@@Base-0x38a>
    8340:	8d 7b ff             	lea    -0x1(%rbx),%edi
    8343:	83 ff 04             	cmp    $0x4,%edi
    8346:	77 12                	ja     835a <error@@Base-0x2ae>
    8348:	4c 8d 05 2d aa 03 00 	lea    0x3aa2d(%rip),%r8        # 42d7c <warn@@Base+0x36345>
    834f:	4d 63 0c b8          	movslq (%r8,%rdi,4),%r9
    8353:	4d 01 c1             	add    %r8,%r9
    8356:	3e 41 ff e1          	notrack jmp *%r9
    835a:	49 89 ed             	mov    %rbp,%r13
    835d:	41 be 03 00 00 00    	mov    $0x3,%r14d
    8363:	e9 43 fe ff ff       	jmp    81ab <error@@Base-0x45d>
    8368:	41 be 03 00 00 00    	mov    $0x3,%r14d
    836e:	e9 46 fe ff ff       	jmp    81b9 <error@@Base-0x44f>
    8373:	49 89 ed             	mov    %rbp,%r13
    8376:	41 0f b6 44 24 01    	movzbl 0x1(%r12),%eax
    837c:	83 e2 3f             	and    $0x3f,%edx
    837f:	4c 89 ef             	mov    %r13,%rdi
    8382:	4c 89 f9             	mov    %r15,%rcx
    8385:	45 0f b6 14 24       	movzbl (%r12),%r10d
    838a:	be 01 00 00 00       	mov    $0x1,%esi
    838f:	49 83 c5 06          	add    $0x6,%r13
    8393:	41 be 03 00 00 00    	mov    $0x3,%r14d
    8399:	41 89 c0             	mov    %eax,%r8d
    839c:	c1 f8 02             	sar    $0x2,%eax
    839f:	41 c1 e0 06          	shl    $0x6,%r8d
    83a3:	41 c1 e2 04          	shl    $0x4,%r10d
    83a7:	83 e0 0f             	and    $0xf,%eax
    83aa:	45 0f b6 c8          	movzbl %r8b,%r9d
    83ae:	45 0f b6 c2          	movzbl %r10b,%r8d
    83b2:	41 09 d1             	or     %edx,%r9d
    83b5:	41 09 c0             	or     %eax,%r8d
    83b8:	48 83 ca ff          	or     $0xffffffffffffffff,%rdx
    83bc:	31 c0                	xor    %eax,%eax
    83be:	ff 15 6c 18 05 00    	call   *0x5186c(%rip)        # 59c30 <warn@@Base+0x4d1f9>
    83c4:	e9 f0 fe ff ff       	jmp    82b9 <error@@Base-0x34f>
    83c9:	41 be 03 00 00 00    	mov    $0x3,%r14d
    83cf:	e9 21 ff ff ff       	jmp    82f5 <error@@Base-0x313>
    83d4:	bb 03 00 00 00       	mov    $0x3,%ebx
    83d9:	e9 2f ff ff ff       	jmp    830d <error@@Base-0x2fb>
    83de:	49 89 ed             	mov    %rbp,%r13
    83e1:	41 be 04 00 00 00    	mov    $0x4,%r14d
    83e7:	e9 bf fd ff ff       	jmp    81ab <error@@Base-0x45d>
    83ec:	41 be 04 00 00 00    	mov    $0x4,%r14d
    83f2:	e9 c2 fd ff ff       	jmp    81b9 <error@@Base-0x44f>
    83f7:	49 89 ed             	mov    %rbp,%r13
    83fa:	45 0f b6 5c 24 02    	movzbl 0x2(%r12),%r11d
    8400:	83 e1 3f             	and    $0x3f,%ecx
    8403:	be 01 00 00 00       	mov    $0x1,%esi
    8408:	31 c0                	xor    %eax,%eax
    840a:	45 0f b6 44 24 01    	movzbl 0x1(%r12),%r8d
    8410:	45 0f b6 24 24       	movzbl (%r12),%r12d
    8415:	52                   	push   %rdx
    8416:	41 be 04 00 00 00    	mov    $0x4,%r14d
    841c:	44 89 df             	mov    %r11d,%edi
    841f:	41 c1 e3 06          	shl    $0x6,%r11d
    8423:	c1 ff 02             	sar    $0x2,%edi
    8426:	44 89 c3             	mov    %r8d,%ebx
    8429:	41 0f b6 d3          	movzbl %r11b,%edx
    842d:	41 c1 e4 06          	shl    $0x6,%r12d
    8431:	c1 e3 06             	shl    $0x6,%ebx
    8434:	41 c1 f8 02          	sar    $0x2,%r8d
    8438:	09 ca                	or     %ecx,%edx
    843a:	83 e7 0f             	and    $0xf,%edi
    843d:	44 0f b6 cb          	movzbl %bl,%r9d
    8441:	41 81 e4 c0 01 00 00 	and    $0x1c0,%r12d
    8448:	41 83 e0 0f          	and    $0xf,%r8d
    844c:	52                   	push   %rdx
    844d:	41 09 f9             	or     %edi,%r9d
    8450:	45 09 e0             	or     %r12d,%r8d
    8453:	4c 89 ef             	mov    %r13,%rdi
    8456:	48 83 ca ff          	or     $0xffffffffffffffff,%rdx
    845a:	48 8d 0d 09 7d 03 00 	lea    0x37d09(%rip),%rcx        # 4016a <warn@@Base+0x33733>
    8461:	ff 15 c9 17 05 00    	call   *0x517c9(%rip)        # 59c30 <warn@@Base+0x4d1f9>
    8467:	59                   	pop    %rcx
    8468:	5e                   	pop    %rsi
    8469:	48 98                	cltq   
    846b:	49 01 c5             	add    %rax,%r13
    846e:	e9 46 fe ff ff       	jmp    82b9 <error@@Base-0x34f>
    8473:	41 be 04 00 00 00    	mov    $0x4,%r14d
    8479:	e9 77 fe ff ff       	jmp    82f5 <error@@Base-0x313>
    847e:	49 be 1b 5b 33 31 3b 	movabs $0x6d37343b31335b1b,%r14
    8485:	34 37 6d 
    8488:	c6 45 08 00          	movb   $0x0,0x8(%rbp)
    848c:	4c 8d 6d 08          	lea    0x8(%rbp),%r13
    8490:	4c 89 75 00          	mov    %r14,0x0(%rbp)
    8494:	e9 8a fe ff ff       	jmp    8323 <error@@Base-0x2e5>
    8499:	41 0f b6 54 24 02    	movzbl 0x2(%r12),%edx
    849f:	e9 d2 fe ff ff       	jmp    8376 <error@@Base-0x292>
    84a4:	41 0f b6 4c 24 03    	movzbl 0x3(%r12),%ecx
    84aa:	e9 4b ff ff ff       	jmp    83fa <error@@Base-0x20e>
    84af:	48 8b 84 24 98 00 00 	mov    0x98(%rsp),%rax
    84b6:	00 
    84b7:	64 48 2b 04 25 28 00 	sub    %fs:0x28,%rax
    84be:	00 00 
    84c0:	75 6e                	jne    8530 <error@@Base-0xd8>
    84c2:	48 81 c4 a0 00 00 00 	add    $0xa0,%rsp
    84c9:	4c 89 e7             	mov    %r12,%rdi
    84cc:	5b                   	pop    %rbx
    84cd:	5d                   	pop    %rbp
    84ce:	41 5c                	pop    %r12
    84d0:	ff 25 52 17 05 00    	jmp    *0x51752(%rip)        # 59c28 <warn@@Base+0x4d1f1>
    84d6:	48 89 ef             	mov    %rbp,%rdi
    84d9:	e8 12 3a 03 00       	call   3bef0 <warn@@Base+0x2f4b9>
    84de:	c7 05 9c 38 05 00 01 	movl   $0x1,0x5389c(%rip)        # 5bd84 <warn@@Base+0x4f34d>
    84e5:	00 00 00 
    84e8:	48 8b 84 24 98 00 00 	mov    0x98(%rsp),%rax
    84ef:	00 
    84f0:	64 48 2b 04 25 28 00 	sub    %fs:0x28,%rax
    84f7:	00 00 
    84f9:	75 2f                	jne    852a <error@@Base-0xde>
    84fb:	48 81 c4 a0 00 00 00 	add    $0xa0,%rsp
    8502:	5b                   	pop    %rbx
    8503:	5d                   	pop    %rbp
    8504:	41 5c                	pop    %r12
    8506:	c3                   	ret    
    8507:	31 ff                	xor    %edi,%edi
    8509:	ba 05 00 00 00       	mov    $0x5,%edx
    850e:	48 8d 35 ab 95 03 00 	lea    0x395ab(%rip),%rsi        # 41ac0 <warn@@Base+0x35089>
    8515:	ff 15 5d 17 05 00    	call   *0x5175d(%rip)        # 59c78 <warn@@Base+0x4d241>
    851b:	48 89 ee             	mov    %rbp,%rsi
    851e:	48 89 c7             	mov    %rax,%rdi
    8521:	31 c0                	xor    %eax,%eax
    8523:	e8 c8 22 03 00       	call   3a7f0 <warn@@Base+0x2ddb9>
    8528:	eb b4                	jmp    84de <error@@Base-0x12a>
    852a:	ff 15 00 18 05 00    	call   *0x51800(%rip)        # 59d30 <warn@@Base+0x4d2f9>
    8530:	ff 15 fa 17 05 00    	call   *0x517fa(%rip)        # 59d30 <warn@@Base+0x4d2f9>
    8536:	31 ff                	xor    %edi,%edi
    8538:	ba 05 00 00 00       	mov    $0x5,%edx
    853d:	48 8d 35 54 95 03 00 	lea    0x39554(%rip),%rsi        # 41a98 <warn@@Base+0x35061>
    8544:	ff 15 2e 17 05 00    	call   *0x5172e(%rip)        # 59c78 <warn@@Base+0x4d241>
    854a:	48 89 ee             	mov    %rbp,%rsi
    854d:	48 89 c7             	mov    %rax,%rdi
    8550:	31 c0                	xor    %eax,%eax
    8552:	e8 99 22 03 00       	call   3a7f0 <warn@@Base+0x2ddb9>
    8557:	eb 85                	jmp    84de <error@@Base-0x12a>
    8559:	ff 15 c1 15 05 00    	call   *0x515c1(%rip)        # 59b20 <warn@@Base+0x4d0e9>
    855f:	8b 38                	mov    (%rax),%edi
    8561:	83 ff 02             	cmp    $0x2,%edi
    8564:	74 58                	je     85be <error@@Base-0x4a>
    8566:	ff 15 24 16 05 00    	call   *0x51624(%rip)        # 59b90 <warn@@Base+0x4d159>
    856c:	31 ff                	xor    %edi,%edi
    856e:	ba 05 00 00 00       	mov    $0x5,%edx
    8573:	48 8d 35 ee 94 03 00 	lea    0x394ee(%rip),%rsi        # 41a68 <warn@@Base+0x35031>
    857a:	48 89 c3             	mov    %rax,%rbx
    857d:	ff 15 f5 16 05 00    	call   *0x516f5(%rip)        # 59c78 <warn@@Base+0x4d241>
    8583:	48 89 da             	mov    %rbx,%rdx
    8586:	48 89 ee             	mov    %rbp,%rsi
    8589:	48 89 c7             	mov    %rax,%rdi
    858c:	31 c0                	xor    %eax,%eax
    858e:	e8 5d 22 03 00       	call   3a7f0 <warn@@Base+0x2ddb9>
    8593:	e9 46 ff ff ff       	jmp    84de <error@@Base-0x12a>
    8598:	31 ff                	xor    %edi,%edi
    859a:	ba 05 00 00 00       	mov    $0x5,%edx
    859f:	48 8d 35 e6 7b 03 00 	lea    0x37be6(%rip),%rsi        # 4018c <warn@@Base+0x33755>
    85a6:	ff 15 cc 16 05 00    	call   *0x516cc(%rip)        # 59c78 <warn@@Base+0x4d241>
    85ac:	48 89 ee             	mov    %rbp,%rsi
    85af:	48 89 c7             	mov    %rax,%rdi
    85b2:	31 c0                	xor    %eax,%eax
    85b4:	e8 37 22 03 00       	call   3a7f0 <warn@@Base+0x2ddb9>
    85b9:	e9 20 ff ff ff       	jmp    84de <error@@Base-0x12a>
    85be:	31 ff                	xor    %edi,%edi
    85c0:	ba 05 00 00 00       	mov    $0x5,%edx
    85c5:	48 8d 35 ad 7b 03 00 	lea    0x37bad(%rip),%rsi        # 40179 <warn@@Base+0x33742>
    85cc:	ff 15 a6 16 05 00    	call   *0x516a6(%rip)        # 59c78 <warn@@Base+0x4d241>
    85d2:	48 89 ee             	mov    %rbp,%rsi
    85d5:	48 89 c7             	mov    %rax,%rdi
    85d8:	31 c0                	xor    %eax,%eax
    85da:	e8 11 22 03 00       	call   3a7f0 <warn@@Base+0x2ddb9>
    85df:	e9 fa fe ff ff       	jmp    84de <error@@Base-0x12a>
    85e4:	ba 05 00 00 00       	mov    $0x5,%edx
    85e9:	48 8d 35 b9 7b 03 00 	lea    0x37bb9(%rip),%rsi        # 401a9 <warn@@Base+0x33772>
    85f0:	31 ff                	xor    %edi,%edi
    85f2:	ff 15 80 16 05 00    	call   *0x51680(%rip)        # 59c78 <warn@@Base+0x4d241>
    85f8:	4c 89 e2             	mov    %r12,%rdx
    85fb:	48 89 ee             	mov    %rbp,%rsi
    85fe:	48 89 c7             	mov    %rax,%rdi
    8601:	31 c0                	xor    %eax,%eax
    8603:	e8 c8 20 03 00       	call   3a6d0 <warn@@Base+0x2dc99>

0000000000008608 <error@@Base>:
    8608:	f3 0f 1e fa          	endbr64 
    860c:	41 55                	push   %r13
    860e:	41 54                	push   %r12
    8610:	49 89 fc             	mov    %rdi,%r12
    8613:	53                   	push   %rbx
    8614:	48 81 ec d0 00 00 00 	sub    $0xd0,%rsp
    861b:	48 89 74 24 28       	mov    %rsi,0x28(%rsp)
    8620:	48 89 54 24 30       	mov    %rdx,0x30(%rsp)
    8625:	48 89 4c 24 38       	mov    %rcx,0x38(%rsp)
    862a:	4c 89 44 24 40       	mov    %r8,0x40(%rsp)
    862f:	4c 89 4c 24 48       	mov    %r9,0x48(%rsp)
    8634:	84 c0                	test   %al,%al
    8636:	74 37                	je     866f <error@@Base+0x67>
    8638:	0f 29 44 24 50       	movaps %xmm0,0x50(%rsp)
    863d:	0f 29 4c 24 60       	movaps %xmm1,0x60(%rsp)
    8642:	0f 29 54 24 70       	movaps %xmm2,0x70(%rsp)
    8647:	0f 29 9c 24 80 00 00 	movaps %xmm3,0x80(%rsp)
    864e:	00 
    864f:	0f 29 a4 24 90 00 00 	movaps %xmm4,0x90(%rsp)
    8656:	00 
    8657:	0f 29 ac 24 a0 00 00 	movaps %xmm5,0xa0(%rsp)
    865e:	00 
    865f:	0f 29 b4 24 b0 00 00 	movaps %xmm6,0xb0(%rsp)
    8666:	00 
    8667:	0f 29 bc 24 c0 00 00 	movaps %xmm7,0xc0(%rsp)
    866e:	00 
    866f:	64 48 8b 04 25 28 00 	mov    %fs:0x28,%rax
    8676:	00 00 
    8678:	48 89 44 24 18       	mov    %rax,0x18(%rsp)
    867d:	48 8b 05 a4 14 05 00 	mov    0x514a4(%rip),%rax        # 59b28 <warn@@Base+0x4d0f1>
    8684:	48 8b 38             	mov    (%rax),%rdi
    8687:	ff 15 d3 16 05 00    	call   *0x516d3(%rip)        # 59d60 <warn@@Base+0x4d329>
    868d:	48 8d 4c 24 20       	lea    0x20(%rsp),%rcx
    8692:	31 ff                	xor    %edi,%edi
    8694:	48 8d 94 24 f0 00 00 	lea    0xf0(%rsp),%rdx
    869b:	00 
    869c:	48 89 54 24 08       	mov    %rdx,0x8(%rsp)
    86a1:	4c 8b 2d f8 36 05 00 	mov    0x536f8(%rip),%r13        # 5bda0 <warn@@Base+0x4f369>
    86a8:	ba 05 00 00 00       	mov    $0x5,%edx
    86ad:	48 8d 35 08 7b 03 00 	lea    0x37b08(%rip),%rsi        # 401bc <warn@@Base+0x33785>
    86b4:	48 89 4c 24 10       	mov    %rcx,0x10(%rsp)
    86b9:	c7 04 24 08 00 00 00 	movl   $0x8,(%rsp)
    86c0:	c7 44 24 04 30 00 00 	movl   $0x30,0x4(%rsp)
    86c7:	00 
    86c8:	ff 15 aa 15 05 00    	call   *0x515aa(%rip)        # 59c78 <warn@@Base+0x4d241>
    86ce:	48 8b 1d 33 17 05 00 	mov    0x51733(%rip),%rbx        # 59e08 <warn@@Base+0x4d3d1>
    86d5:	4c 89 e9             	mov    %r13,%rcx
    86d8:	be 01 00 00 00       	mov    $0x1,%esi
    86dd:	48 89 c2             	mov    %rax,%rdx
    86e0:	31 c0                	xor    %eax,%eax
    86e2:	48 8b 3b             	mov    (%rbx),%rdi
    86e5:	ff 15 05 18 05 00    	call   *0x51805(%rip)        # 59ef0 <warn@@Base+0x4d4b9>
    86eb:	48 8b 3b             	mov    (%rbx),%rdi
    86ee:	48 89 e1             	mov    %rsp,%rcx
    86f1:	4c 89 e2             	mov    %r12,%rdx
    86f4:	be 01 00 00 00       	mov    $0x1,%esi
    86f9:	ff 15 71 14 05 00    	call   *0x51471(%rip)        # 59b70 <warn@@Base+0x4d139>
    86ff:	48 8b 44 24 18       	mov    0x18(%rsp),%rax
    8704:	64 48 2b 04 25 28 00 	sub    %fs:0x28,%rax
    870b:	00 00 
    870d:	74 06                	je     8715 <error@@Base+0x10d>
    870f:	ff 15 1b 16 05 00    	call   *0x5161b(%rip)        # 59d30 <warn@@Base+0x4d2f9>
    8715:	48 81 c4 d0 00 00 00 	add    $0xd0,%rsp
    871c:	5b                   	pop    %rbx
    871d:	41 5c                	pop    %r12
    871f:	41 5d                	pop    %r13
    8721:	c3                   	ret    
    8722:	ff 15 b8 16 05 00    	call   *0x516b8(%rip)        # 59de0 <warn@@Base+0x4d3a9>
    8728:	83 f8 0d             	cmp    $0xd,%eax
    872b:	0f 84 9a 00 00 00    	je     87cb <error@@Base+0x1c3>
    8731:	ff 15 a9 16 05 00    	call   *0x516a9(%rip)        # 59de0 <warn@@Base+0x4d3a9>
    8737:	83 f8 0c             	cmp    $0xc,%eax
    873a:	0f 84 b6 00 00 00    	je     87f6 <error@@Base+0x1ee>
    8740:	48 8b 7d 00          	mov    0x0(%rbp),%rdi
    8744:	e8 a7 37 03 00       	call   3bef0 <warn@@Base+0x2f4b9>
    8749:	c7 05 31 36 05 00 01 	movl   $0x1,0x53631(%rip)        # 5bd84 <warn@@Base+0x4f34d>
    8750:	00 00 00 
    8753:	e9 d3 52 02 00       	jmp    2da2b <warn@@Base+0x20ff4>
    8758:	83 fb 64             	cmp    $0x64,%ebx
    875b:	7f 50                	jg     87ad <error@@Base+0x1a5>
    875d:	48 8b 7d 00          	mov    0x0(%rbp),%rdi
    8761:	e8 2a 51 02 00       	call   2d890 <warn@@Base+0x20e59>
    8766:	31 ff                	xor    %edi,%edi
    8768:	ba 05 00 00 00       	mov    $0x5,%edx
    876d:	48 8d 35 80 7a 03 00 	lea    0x37a80(%rip),%rsi        # 401f4 <warn@@Base+0x337bd>
    8774:	49 89 c5             	mov    %rax,%r13
    8777:	ff 15 fb 14 05 00    	call   *0x514fb(%rip)        # 59c78 <warn@@Base+0x4d241>
    877d:	4c 89 ea             	mov    %r13,%rdx
    8780:	bf 01 00 00 00       	mov    $0x1,%edi
    8785:	48 89 c6             	mov    %rax,%rsi
    8788:	31 c0                	xor    %eax,%eax
    878a:	ff 15 78 13 05 00    	call   *0x51378(%rip)        # 59b08 <warn@@Base+0x4d0d1>
    8790:	e9 f0 52 02 00       	jmp    2da85 <warn@@Base+0x2104e>
    8795:	48 8b 7d 00          	mov    0x0(%rbp),%rdi
    8799:	e8 52 37 03 00       	call   3bef0 <warn@@Base+0x2f4b9>
    879e:	c7 05 dc 35 05 00 01 	movl   $0x1,0x535dc(%rip)        # 5bd84 <warn@@Base+0x4f34d>
    87a5:	00 00 00 
    87a8:	e9 1d 53 02 00       	jmp    2daca <warn@@Base+0x21093>
    87ad:	31 ff                	xor    %edi,%edi
    87af:	ba 05 00 00 00       	mov    $0x5,%edx
    87b4:	48 8d 35 1d 7a 03 00 	lea    0x37a1d(%rip),%rsi        # 401d8 <warn@@Base+0x337a1>
    87bb:	ff 15 b7 14 05 00    	call   *0x514b7(%rip)        # 59c78 <warn@@Base+0x4d241>
    87c1:	48 89 c7             	mov    %rax,%rdi
    87c4:	31 c0                	xor    %eax,%eax
    87c6:	e8 05 1f 03 00       	call   3a6d0 <warn@@Base+0x2dc99>
    87cb:	48 8b 7d 00          	mov    0x0(%rbp),%rdi
    87cf:	e8 1c 37 03 00       	call   3bef0 <warn@@Base+0x2f4b9>
    87d4:	48 8b 3c 24          	mov    (%rsp),%rdi
    87d8:	c7 05 a2 35 05 00 01 	movl   $0x1,0x535a2(%rip)        # 5bd84 <warn@@Base+0x4f34d>
    87df:	00 00 00 
    87e2:	e8 67 14 02 00       	call   29c4e <warn@@Base+0x1d217>
    87e7:	48 8b 3c 24          	mov    (%rsp),%rdi
    87eb:	ff 15 87 15 05 00    	call   *0x51587(%rip)        # 59d78 <warn@@Base+0x4d341>
    87f1:	e9 35 52 02 00       	jmp    2da2b <warn@@Base+0x20ff4>
    87f6:	4c 89 e2             	mov    %r12,%rdx
    87f9:	be 03 00 00 00       	mov    $0x3,%esi
    87fe:	48 89 ef             	mov    %rbp,%rdi
    8801:	ff 15 f1 13 05 00    	call   *0x513f1(%rip)        # 59bf8 <warn@@Base+0x4d1c1>
    8807:	84 c0                	test   %al,%al
    8809:	75 3a                	jne    8845 <error@@Base+0x23d>
    880b:	48 8b 7d 00          	mov    0x0(%rbp),%rdi
    880f:	e8 dc 36 03 00       	call   3bef0 <warn@@Base+0x2f4b9>
    8814:	c7 05 66 35 05 00 01 	movl   $0x1,0x53566(%rip)        # 5bd84 <warn@@Base+0x4f34d>
    881b:	00 00 00 
    881e:	ff 15 bc 15 05 00    	call   *0x515bc(%rip)        # 59de0 <warn@@Base+0x4d3a9>
    8824:	83 f8 0d             	cmp    $0xd,%eax
    8827:	0f 85 fe 51 02 00    	jne    2da2b <warn@@Base+0x20ff4>
    882d:	48 8b 3c 24          	mov    (%rsp),%rdi
    8831:	e8 18 14 02 00       	call   29c4e <warn@@Base+0x1d217>
    8836:	48 8b 3c 24          	mov    (%rsp),%rdi
    883a:	ff 15 38 15 05 00    	call   *0x51538(%rip)        # 59d78 <warn@@Base+0x4d341>
    8840:	e9 e6 51 02 00       	jmp    2da2b <warn@@Base+0x20ff4>
    8845:	be 01 00 00 00       	mov    $0x1,%esi
    884a:	48 89 ef             	mov    %rbp,%rdi
    884d:	e8 0e 53 02 00       	call   2db60 <warn@@Base+0x21129>
    8852:	e9 d4 51 02 00       	jmp    2da2b <warn@@Base+0x20ff4>
    8857:	0f b6 57 01          	movzbl 0x1(%rdi),%edx
    885b:	0f b6 4f 02          	movzbl 0x2(%rdi),%ecx
    885f:	0f b6 07             	movzbl (%rdi),%eax
    8862:	48 c1 e2 08          	shl    $0x8,%rdx
    8866:	48 c1 e1 10          	shl    $0x10,%rcx
    886a:	48 09 ca             	or     %rcx,%rdx
    886d:	48 09 d0             	or     %rdx,%rax
    8870:	e9 ce 52 02 00       	jmp    2db43 <warn@@Base+0x2110c>
    8875:	44 0f b6 40 05       	movzbl 0x5(%rax),%r8d
    887a:	0f b6 7f 04          	movzbl 0x4(%rdi),%edi
    887e:	44 8b 08             	mov    (%rax),%r9d
    8881:	0f b6 40 06          	movzbl 0x6(%rax),%eax
    8885:	48 c1 e7 20          	shl    $0x20,%rdi
    8889:	49 c1 e0 28          	shl    $0x28,%r8
    888d:	4c 09 c7             	or     %r8,%rdi
    8890:	48 c1 e0 30          	shl    $0x30,%rax
    8894:	4c 09 cf             	or     %r9,%rdi
    8897:	48 09 f8             	or     %rdi,%rax
    889a:	e9 a4 52 02 00       	jmp    2db43 <warn@@Base+0x2110c>
    889f:	44 0f b6 57 04       	movzbl 0x4(%rdi),%r10d
    88a4:	44 0f b6 5f 05       	movzbl 0x5(%rdi),%r11d
    88a9:	8b 07                	mov    (%rdi),%eax
    88ab:	49 c1 e2 20          	shl    $0x20,%r10
    88af:	49 c1 e3 28          	shl    $0x28,%r11
    88b3:	4d 09 da             	or     %r11,%r10
    88b6:	4c 09 d0             	or     %r10,%rax
    88b9:	e9 85 52 02 00       	jmp    2db43 <warn@@Base+0x2110c>
    88be:	0f b6 6f 04          	movzbl 0x4(%rdi),%ebp
    88c2:	8b 07                	mov    (%rdi),%eax
    88c4:	48 c1 e5 20          	shl    $0x20,%rbp
    88c8:	48 09 e8             	or     %rbp,%rax
    88cb:	e9 73 52 02 00       	jmp    2db43 <warn@@Base+0x2110c>
    88d0:	ba 05 00 00 00       	mov    $0x5,%edx
    88d5:	48 8d 35 2f 79 03 00 	lea    0x3792f(%rip),%rsi        # 4020b <warn@@Base+0x337d4>
    88dc:	31 ff                	xor    %edi,%edi
    88de:	ff 15 94 13 05 00    	call   *0x51394(%rip)        # 59c78 <warn@@Base+0x4d241>
    88e4:	89 ee                	mov    %ebp,%esi
    88e6:	48 89 c7             	mov    %rax,%rdi
    88e9:	31 c0                	xor    %eax,%eax
    88eb:	67 e8 17 fd ff ff    	addr32 call 8608 <error@@Base>
    88f1:	ff 15 21 13 05 00    	call   *0x51321(%rip)        # 59c18 <warn@@Base+0x4d1e1>
    88f7:	48 89 05 2a 55 05 00 	mov    %rax,0x5552a(%rip)        # 5de28 <warn@@Base+0x513f1>
    88fe:	e9 2f 5f 02 00       	jmp    2e832 <warn@@Base+0x21dfb>
    8903:	40 80 fe 78          	cmp    $0x78,%sil
    8907:	74 61                	je     896a <error@@Base+0x362>
    8909:	c6 84 24 2e 01 00 00 	movb   $0x54,0x12e(%rsp)
    8910:	54 
    8911:	e9 ec 65 02 00       	jmp    2ef02 <warn@@Base+0x224cb>
    8916:	41 80 fc 78          	cmp    $0x78,%r12b
    891a:	74 20                	je     893c <error@@Base+0x334>
    891c:	c6 84 24 2b 01 00 00 	movb   $0x53,0x12b(%rsp)
    8923:	53 
    8924:	e9 d0 65 02 00       	jmp    2eef9 <warn@@Base+0x224c2>
    8929:	41 80 fa 78          	cmp    $0x78,%r10b
    892d:	74 1a                	je     8949 <error@@Base+0x341>
    892f:	c6 84 24 28 01 00 00 	movb   $0x53,0x128(%rsp)
    8936:	53 
    8937:	e9 b4 65 02 00       	jmp    2eef0 <warn@@Base+0x224b9>
    893c:	c6 84 24 2b 01 00 00 	movb   $0x73,0x12b(%rsp)
    8943:	73 
    8944:	e9 b0 65 02 00       	jmp    2eef9 <warn@@Base+0x224c2>
    8949:	c6 84 24 28 01 00 00 	movb   $0x73,0x128(%rsp)
    8950:	73 
    8951:	e9 9a 65 02 00       	jmp    2eef0 <warn@@Base+0x224b9>
    8956:	ba 73 00 00 00       	mov    $0x73,%edx
    895b:	e9 83 64 02 00       	jmp    2ede3 <warn@@Base+0x223ac>
    8960:	ba 63 00 00 00       	mov    $0x63,%edx
    8965:	e9 79 64 02 00       	jmp    2ede3 <warn@@Base+0x223ac>
    896a:	c6 84 24 2e 01 00 00 	movb   $0x74,0x12e(%rsp)
    8971:	74 
    8972:	e9 8b 65 02 00       	jmp    2ef02 <warn@@Base+0x224cb>
    8977:	ba 62 00 00 00       	mov    $0x62,%edx
    897c:	e9 62 64 02 00       	jmp    2ede3 <warn@@Base+0x223ac>
    8981:	ba 6c 00 00 00       	mov    $0x6c,%edx
    8986:	e9 58 64 02 00       	jmp    2ede3 <warn@@Base+0x223ac>
    898b:	ba 64 00 00 00       	mov    $0x64,%edx
    8990:	e9 4e 64 02 00       	jmp    2ede3 <warn@@Base+0x223ac>
    8995:	31 ff                	xor    %edi,%edi
    8997:	ba 05 00 00 00       	mov    $0x5,%edx
    899c:	48 8d 35 74 79 03 00 	lea    0x37974(%rip),%rsi        # 40317 <warn@@Base+0x338e0>
    89a3:	ff 15 cf 12 05 00    	call   *0x512cf(%rip)        # 59c78 <warn@@Base+0x4d241>
    89a9:	ba 28 00 00 00       	mov    $0x28,%edx
    89ae:	be 01 00 00 00       	mov    $0x1,%esi
    89b3:	48 8d 9c 24 30 01 00 	lea    0x130(%rsp),%rbx
    89ba:	00 
    89bb:	48 89 c1             	mov    %rax,%rcx
    89be:	48 89 df             	mov    %rbx,%rdi
    89c1:	31 c0                	xor    %eax,%eax
    89c3:	ff 15 67 12 05 00    	call   *0x51267(%rip)        # 59c30 <warn@@Base+0x4d1f9>
    89c9:	e9 af 63 02 00       	jmp    2ed7d <warn@@Base+0x22346>
    89ce:	83 3d 37 55 05 00 00 	cmpl   $0x0,0x55537(%rip)        # 5df0c <warn@@Base+0x514d5>
    89d5:	0f 84 fe 52 02 00    	je     2dcd9 <warn@@Base+0x212a2>
    89db:	e9 a9 61 02 00       	jmp    2eb89 <warn@@Base+0x22152>
    89e0:	4c 8b 05 39 54 05 00 	mov    0x55439(%rip),%r8        # 5de20 <warn@@Base+0x513e9>
    89e7:	bf 60 00 00 00       	mov    $0x60,%edi
    89ec:	4c 89 44 24 30       	mov    %r8,0x30(%rsp)
    89f1:	ff 15 31 14 05 00    	call   *0x51431(%rip)        # 59e28 <warn@@Base+0x4d3f1>
    89f7:	b9 18 00 00 00       	mov    $0x18,%ecx
    89fc:	4c 8d 1d 3d 07 05 00 	lea    0x5073d(%rip),%r11        # 59140 <warn@@Base+0x4c709>
    8a03:	c6 84 24 84 00 00 00 	movb   $0x0,0x84(%rsp)
    8a0a:	00 
    8a0b:	49 89 c1             	mov    %rax,%r9
    8a0e:	31 c0                	xor    %eax,%eax
    8a10:	4c 89 5c 24 50       	mov    %r11,0x50(%rsp)
    8a15:	4c 89 cf             	mov    %r9,%rdi
    8a18:	48 c7 04 24 00 00 00 	movq   $0x0,(%rsp)
    8a1f:	00 
    8a20:	f3 ab                	rep stos %eax,%es:(%rdi)
    8a22:	4c 89 4c 24 20       	mov    %r9,0x20(%rsp)
    8a27:	44 89 74 24 48       	mov    %r14d,0x48(%rsp)
    8a2c:	48 89 ac 24 98 00 00 	mov    %rbp,0x98(%rsp)
    8a33:	00 
    8a34:	4c 8b 74 24 50       	mov    0x50(%rsp),%r14
    8a39:	4c 89 ff             	mov    %r15,%rdi
    8a3c:	49 8b 36             	mov    (%r14),%rsi
    8a3f:	48 89 74 24 60       	mov    %rsi,0x60(%rsp)
    8a44:	ff 15 6e 12 05 00    	call   *0x5126e(%rip)        # 59cb8 <warn@@Base+0x4d281>
    8a4a:	49 8b 5e 08          	mov    0x8(%r14),%rbx
    8a4e:	4c 89 ff             	mov    %r15,%rdi
    8a51:	49 89 c5             	mov    %rax,%r13
    8a54:	48 89 de             	mov    %rbx,%rsi
    8a57:	ff 15 5b 12 05 00    	call   *0x5125b(%rip)        # 59cb8 <warn@@Base+0x4d281>
    8a5d:	49 89 c4             	mov    %rax,%r12
    8a60:	4d 85 ed             	test   %r13,%r13
    8a63:	74 09                	je     8a6e <error@@Base+0x466>
    8a65:	48 85 c0             	test   %rax,%rax
    8a68:	0f 85 ec 01 00 00    	jne    8c5a <error@@Base+0x652>
    8a6e:	48 83 44 24 50 10    	addq   $0x10,0x50(%rsp)
    8a74:	4c 8b 74 24 50       	mov    0x50(%rsp),%r14
    8a79:	4c 8d 2d f0 06 05 00 	lea    0x506f0(%rip),%r13        # 59170 <warn@@Base+0x4c739>
    8a80:	4d 39 f5             	cmp    %r14,%r13
    8a83:	75 af                	jne    8a34 <error@@Base+0x42c>
    8a85:	48 83 3c 24 00       	cmpq   $0x0,(%rsp)
    8a8a:	4c 8b 6c 24 20       	mov    0x20(%rsp),%r13
    8a8f:	44 8b 74 24 48       	mov    0x48(%rsp),%r14d
    8a94:	4c 8b a4 24 98 00 00 	mov    0x98(%rsp),%r12
    8a9b:	00 
    8a9c:	74 14                	je     8ab2 <error@@Base+0x4aa>
    8a9e:	48 8b 34 24          	mov    (%rsp),%rsi
    8aa2:	4c 89 ef             	mov    %r13,%rdi
    8aa5:	e8 c0 aa 01 00       	call   2356a <warn@@Base+0x16b33>
    8aaa:	84 c0                	test   %al,%al
    8aac:	0f 84 1b 03 00 00    	je     8dcd <error@@Base+0x7c5>
    8ab2:	49 8b 4f 08          	mov    0x8(%r15),%rcx
    8ab6:	83 79 08 01          	cmpl   $0x1,0x8(%rcx)
    8aba:	0f 84 f4 03 00 00    	je     8eb4 <error@@Base+0x8ac>
    8ac0:	80 bc 24 84 00 00 00 	cmpb   $0x0,0x84(%rsp)
    8ac7:	00 
    8ac8:	75 36                	jne    8b00 <error@@Base+0x4f8>
    8aca:	4d 8b 47 08          	mov    0x8(%r15),%r8
    8ace:	41 83 78 08 02       	cmpl   $0x2,0x8(%r8)
    8ad3:	0f 85 f4 02 00 00    	jne    8dcd <error@@Base+0x7c5>
    8ad9:	48 83 7c 24 30 00    	cmpq   $0x0,0x30(%rsp)
    8adf:	0f 8e e8 02 00 00    	jle    8dcd <error@@Base+0x7c5>
    8ae5:	48 8b 54 24 30       	mov    0x30(%rsp),%rdx
    8aea:	4c 89 e9             	mov    %r13,%rcx
    8aed:	4c 89 e6             	mov    %r12,%rsi
    8af0:	4c 89 ff             	mov    %r15,%rdi
    8af3:	e8 cb 45 02 00       	call   2d0c3 <warn@@Base+0x2068c>
    8af8:	84 c0                	test   %al,%al
    8afa:	0f 84 cd 02 00 00    	je     8dcd <error@@Base+0x7c5>
    8b00:	48 8b 15 21 10 05 00 	mov    0x51021(%rip),%rdx        # 59b28 <warn@@Base+0x4d0f1>
    8b07:	4c 8b 0d 1a 53 05 00 	mov    0x5531a(%rip),%r9        # 5de28 <warn@@Base+0x513f1>
    8b0e:	c7 84 24 e8 00 00 00 	movl   $0x0,0xe8(%rsp)
    8b15:	00 00 00 00 
    8b19:	48 8b 2d 00 11 05 00 	mov    0x51100(%rip),%rbp        # 59c20 <warn@@Base+0x4d1e9>
    8b20:	83 3d b9 53 05 00 00 	cmpl   $0x0,0x553b9(%rip)        # 5dee0 <warn@@Base+0x514a9>
    8b27:	48 c7 84 24 f0 00 00 	movq   $0x0,0xf0(%rsp)
    8b2e:	00 00 00 00 00 
    8b33:	48 8b 1a             	mov    (%rdx),%rbx
    8b36:	4c 89 bc 24 08 01 00 	mov    %r15,0x108(%rsp)
    8b3d:	00 
    8b3e:	c7 84 24 f8 00 00 00 	movl   $0x0,0xf8(%rsp)
    8b45:	00 00 00 00 
    8b49:	48 89 9c 24 e0 00 00 	mov    %rbx,0xe0(%rsp)
    8b50:	00 
    8b51:	48 c7 84 24 00 01 00 	movq   $0x0,0x100(%rsp)
    8b58:	00 00 00 00 00 
    8b5d:	4c 89 8c 24 10 01 00 	mov    %r9,0x110(%rsp)
    8b64:	00 
    8b65:	48 89 ac 24 18 01 00 	mov    %rbp,0x118(%rsp)
    8b6c:	00 
    8b6d:	0f 85 73 08 00 00    	jne    93e6 <error@@Base+0xdde>
    8b73:	48 8d 94 24 e0 00 00 	lea    0xe0(%rsp),%rdx
    8b7a:	00 
    8b7b:	48 8d 35 fe 05 05 00 	lea    0x505fe(%rip),%rsi        # 59180 <warn@@Base+0x4c749>
    8b82:	4c 89 ef             	mov    %r13,%rdi
    8b85:	e8 15 a8 01 00       	call   2339f <warn@@Base+0x16968>
    8b8a:	84 c0                	test   %al,%al
    8b8c:	0f 84 d8 08 00 00    	je     946a <error@@Base+0xe62>
    8b92:	4c 89 ef             	mov    %r13,%rdi
    8b95:	ff 15 dd 11 05 00    	call   *0x511dd(%rip)        # 59d78 <warn@@Base+0x4d341>
    8b9b:	48 8b 2d 86 52 05 00 	mov    0x55286(%rip),%rbp        # 5de28 <warn@@Base+0x513f1>
    8ba2:	e9 ef 52 02 00       	jmp    2de96 <warn@@Base+0x2145f>
    8ba7:	4d 8b 91 40 03 00 00 	mov    0x340(%r9),%r10
    8bae:	41 bb 01 00 00 00    	mov    $0x1,%r11d
    8bb4:	48 8b 05 6d 14 05 00 	mov    0x5146d(%rip),%rax        # 5a028 <warn@@Base+0x4d5f1>
    8bbb:	41 0f b6 4a 0a       	movzbl 0xa(%r10),%ecx
    8bc0:	83 e9 01             	sub    $0x1,%ecx
    8bc3:	49 d3 e3             	shl    %cl,%r11
    8bc6:	4b 8d 2c 1b          	lea    (%r11,%r11,1),%rbp
    8bca:	48 83 ed 01          	sub    $0x1,%rbp
    8bce:	48 21 e8             	and    %rbp,%rax
    8bd1:	48 23 2d 48 14 05 00 	and    0x51448(%rip),%rbp        # 5a020 <warn@@Base+0x4d5e9>
    8bd8:	4c 31 d8             	xor    %r11,%rax
    8bdb:	4c 31 dd             	xor    %r11,%rbp
    8bde:	4c 29 d8             	sub    %r11,%rax
    8be1:	4c 29 dd             	sub    %r11,%rbp
    8be4:	48 89 05 3d 14 05 00 	mov    %rax,0x5143d(%rip)        # 5a028 <warn@@Base+0x4d5f1>
    8beb:	48 89 2d 2e 14 05 00 	mov    %rbp,0x5142e(%rip)        # 5a020 <warn@@Base+0x4d5e9>
    8bf2:	e9 6f 50 02 00       	jmp    2dc66 <warn@@Base+0x2122f>
    8bf7:	ff 15 e3 11 05 00    	call   *0x511e3(%rip)        # 59de0 <warn@@Base+0x4d3a9>
    8bfd:	89 c7                	mov    %eax,%edi
    8bff:	ff 15 c3 12 05 00    	call   *0x512c3(%rip)        # 59ec8 <warn@@Base+0x4d491>
    8c05:	31 ff                	xor    %edi,%edi
    8c07:	ba 05 00 00 00       	mov    $0x5,%edx
    8c0c:	48 8d 35 dd 8f 03 00 	lea    0x38fdd(%rip),%rsi        # 41bf0 <warn@@Base+0x351b9>
    8c13:	48 89 c3             	mov    %rax,%rbx
    8c16:	ff 15 5c 10 05 00    	call   *0x5105c(%rip)        # 59c78 <warn@@Base+0x4d241>
    8c1c:	48 89 de             	mov    %rbx,%rsi
    8c1f:	48 89 c7             	mov    %rax,%rdi
    8c22:	31 c0                	xor    %eax,%eax
    8c24:	e8 c7 1b 03 00       	call   3a7f0 <warn@@Base+0x2ddb9>
    8c29:	48 83 3d e7 52 05 00 	cmpq   $0x0,0x552e7(%rip)        # 5df18 <warn@@Base+0x514e1>
    8c30:	00 
    8c31:	0f 84 ca 50 02 00    	je     2dd01 <warn@@Base+0x212ca>
    8c37:	31 ff                	xor    %edi,%edi
    8c39:	ba 05 00 00 00       	mov    $0x5,%edx
    8c3e:	48 8d 35 d3 8f 03 00 	lea    0x38fd3(%rip),%rsi        # 41c18 <warn@@Base+0x351e1>
    8c45:	ff 15 2d 10 05 00    	call   *0x5102d(%rip)        # 59c78 <warn@@Base+0x4d241>
    8c4b:	48 89 c7             	mov    %rax,%rdi
    8c4e:	31 c0                	xor    %eax,%eax
    8c50:	e8 9b 1b 03 00       	call   3a7f0 <warn@@Base+0x2ddb9>
    8c55:	e9 a7 50 02 00       	jmp    2dd01 <warn@@Base+0x212ca>
    8c5a:	49 8b 6d 40          	mov    0x40(%r13),%rbp
    8c5e:	48 89 ef             	mov    %rbp,%rdi
    8c61:	ff 15 c1 11 05 00    	call   *0x511c1(%rip)        # 59e28 <warn@@Base+0x4d3f1>
    8c67:	31 c9                	xor    %ecx,%ecx
    8c69:	49 89 e8             	mov    %rbp,%r8
    8c6c:	4c 89 ee             	mov    %r13,%rsi
    8c6f:	49 89 c6             	mov    %rax,%r14
    8c72:	48 89 c2             	mov    %rax,%rdx
    8c75:	4c 89 ff             	mov    %r15,%rdi
    8c78:	ff 15 9a 11 05 00    	call   *0x5119a(%rip)        # 59e18 <warn@@Base+0x4d3e1>
    8c7e:	84 c0                	test   %al,%al
    8c80:	0f 84 f0 00 00 00    	je     8d76 <error@@Base+0x76e>
    8c86:	4d 8b 6c 24 40       	mov    0x40(%r12),%r13
    8c8b:	49 8d 7d 01          	lea    0x1(%r13),%rdi
    8c8f:	4c 89 6c 24 68       	mov    %r13,0x68(%rsp)
    8c94:	ff 15 8e 11 05 00    	call   *0x5118e(%rip)        # 59e28 <warn@@Base+0x4d3f1>
    8c9a:	4d 89 e8             	mov    %r13,%r8
    8c9d:	31 c9                	xor    %ecx,%ecx
    8c9f:	4c 89 e6             	mov    %r12,%rsi
    8ca2:	48 89 44 24 10       	mov    %rax,0x10(%rsp)
    8ca7:	48 89 c2             	mov    %rax,%rdx
    8caa:	4c 89 ff             	mov    %r15,%rdi
    8cad:	ff 15 65 11 05 00    	call   *0x51165(%rip)        # 59e18 <warn@@Base+0x4d3e1>
    8cb3:	88 84 24 84 00 00 00 	mov    %al,0x84(%rsp)
    8cba:	84 c0                	test   %al,%al
    8cbc:	0f 84 2d 01 00 00    	je     8def <error@@Base+0x7e7>
    8cc2:	4c 8b 54 24 10       	mov    0x10(%rsp),%r10
    8cc7:	48 8b 54 24 68       	mov    0x68(%rsp),%rdx
    8ccc:	48 83 3c 24 00       	cmpq   $0x0,(%rsp)
    8cd1:	41 c6 04 12 00       	movb   $0x0,(%r10,%rdx,1)
    8cd6:	0f 84 78 01 00 00    	je     8e54 <error@@Base+0x84c>
    8cdc:	4c 8d 45 f4          	lea    -0xc(%rbp),%r8
    8ce0:	4d 8d 0c 2e          	lea    (%r14,%rbp,1),%r9
    8ce4:	4c 89 f3             	mov    %r14,%rbx
    8ce7:	48 c7 84 24 90 00 00 	movq   $0x0,0x90(%rsp)
    8cee:	00 00 00 00 00 
    8cf3:	48 c7 44 24 70 00 00 	movq   $0x0,0x70(%rsp)
    8cfa:	00 00 
    8cfc:	4c 89 84 24 a0 00 00 	mov    %r8,0xa0(%rsp)
    8d03:	00 
    8d04:	4c 89 8c 24 a8 00 00 	mov    %r9,0xa8(%rsp)
    8d0b:	00 
    8d0c:	48 8b 8c 24 a0 00 00 	mov    0xa0(%rsp),%rcx
    8d13:	00 
    8d14:	4c 01 f1             	add    %r14,%rcx
    8d17:	48 39 cb             	cmp    %rcx,%rbx
    8d1a:	0f 87 81 01 00 00    	ja     8ea1 <error@@Base+0x899>
    8d20:	49 8b 47 08          	mov    0x8(%r15),%rax
    8d24:	48 89 df             	mov    %rbx,%rdi
    8d27:	ff 50 40             	call   *0x40(%rax)
    8d2a:	49 8b 6f 08          	mov    0x8(%r15),%rbp
    8d2e:	44 0f b6 63 04       	movzbl 0x4(%rbx),%r12d
    8d33:	48 8d 7b 06          	lea    0x6(%rbx),%rdi
    8d37:	49 89 c5             	mov    %rax,%r13
    8d3a:	ff 55 58             	call   *0x58(%rbp)
    8d3d:	48 8d 7b 08          	lea    0x8(%rbx),%rdi
    8d41:	89 84 24 88 00 00 00 	mov    %eax,0x88(%rsp)
    8d48:	49 8b 47 08          	mov    0x8(%r15),%rax
    8d4c:	ff 50 40             	call   *0x40(%rax)
    8d4f:	45 85 e4             	test   %r12d,%r12d
    8d52:	0f 85 00 08 00 00    	jne    9558 <error@@Base+0xf50>
    8d58:	4c 8b 8c 24 90 00 00 	mov    0x90(%rsp),%r9
    8d5f:	00 
    8d60:	4c 89 4c 24 70       	mov    %r9,0x70(%rsp)
    8d65:	49 01 c1             	add    %rax,%r9
    8d68:	4c 89 8c 24 90 00 00 	mov    %r9,0x90(%rsp)
    8d6f:	00 
    8d70:	48 83 c3 0c          	add    $0xc,%rbx
    8d74:	eb 96                	jmp    8d0c <error@@Base+0x704>
    8d76:	4d 89 f4             	mov    %r14,%r12
    8d79:	4c 8b 6c 24 20       	mov    0x20(%rsp),%r13
    8d7e:	44 8b 74 24 48       	mov    0x48(%rsp),%r14d
    8d83:	ff 15 57 10 05 00    	call   *0x51057(%rip)        # 59de0 <warn@@Base+0x4d3a9>
    8d89:	89 c7                	mov    %eax,%edi
    8d8b:	ff 15 37 11 05 00    	call   *0x51137(%rip)        # 59ec8 <warn@@Base+0x4d491>
    8d91:	4c 8b 1d 70 10 05 00 	mov    0x51070(%rip),%r11        # 59e08 <warn@@Base+0x4d3d1>
    8d98:	49 8b 0f             	mov    (%r15),%rcx
    8d9b:	48 8d 15 7c 77 03 00 	lea    0x3777c(%rip),%rdx        # 4051e <warn@@Base+0x33ae7>
    8da2:	49 89 c1             	mov    %rax,%r9
    8da5:	4c 8b 44 24 60       	mov    0x60(%rsp),%r8
    8daa:	be 01 00 00 00       	mov    $0x1,%esi
    8daf:	31 c0                	xor    %eax,%eax
    8db1:	49 8b 3b             	mov    (%r11),%rdi
    8db4:	ff 15 36 11 05 00    	call   *0x51136(%rip)        # 59ef0 <warn@@Base+0x4d4b9>
    8dba:	48 8b 3c 24          	mov    (%rsp),%rdi
    8dbe:	ff 15 b4 0f 05 00    	call   *0x50fb4(%rip)        # 59d78 <warn@@Base+0x4d341>
    8dc4:	4c 89 e7             	mov    %r12,%rdi
    8dc7:	ff 15 ab 0f 05 00    	call   *0x50fab(%rip)        # 59d78 <warn@@Base+0x4d341>
    8dcd:	4c 89 ef             	mov    %r13,%rdi
    8dd0:	ff 15 a2 0f 05 00    	call   *0x50fa2(%rip)        # 59d78 <warn@@Base+0x4d341>
    8dd6:	83 3d fb 50 05 00 00 	cmpl   $0x0,0x550fb(%rip)        # 5ded8 <warn@@Base+0x514a1>
    8ddd:	0f 84 e6 05 00 00    	je     93c9 <error@@Base+0xdc1>
    8de3:	48 8b 2d 3e 50 05 00 	mov    0x5503e(%rip),%rbp        # 5de28 <warn@@Base+0x513f1>
    8dea:	e9 a7 50 02 00       	jmp    2de96 <warn@@Base+0x2145f>
    8def:	4c 89 f5             	mov    %r14,%rbp
    8df2:	4c 8b 6c 24 20       	mov    0x20(%rsp),%r13
    8df7:	44 8b 74 24 48       	mov    0x48(%rsp),%r14d
    8dfc:	ff 15 de 0f 05 00    	call   *0x50fde(%rip)        # 59de0 <warn@@Base+0x4d3a9>
    8e02:	89 c7                	mov    %eax,%edi
    8e04:	ff 15 be 10 05 00    	call   *0x510be(%rip)        # 59ec8 <warn@@Base+0x4d491>
    8e0a:	49 8b 0f             	mov    (%r15),%rcx
    8e0d:	49 89 d8             	mov    %rbx,%r8
    8e10:	be 01 00 00 00       	mov    $0x1,%esi
    8e15:	48 8b 3d ec 0f 05 00 	mov    0x50fec(%rip),%rdi        # 59e08 <warn@@Base+0x4d3d1>
    8e1c:	49 89 c1             	mov    %rax,%r9
    8e1f:	31 c0                	xor    %eax,%eax
    8e21:	48 8d 15 f6 76 03 00 	lea    0x376f6(%rip),%rdx        # 4051e <warn@@Base+0x33ae7>
    8e28:	48 8b 3f             	mov    (%rdi),%rdi
    8e2b:	ff 15 bf 10 05 00    	call   *0x510bf(%rip)        # 59ef0 <warn@@Base+0x4d4b9>
    8e31:	48 8b 3c 24          	mov    (%rsp),%rdi
    8e35:	ff 15 3d 0f 05 00    	call   *0x50f3d(%rip)        # 59d78 <warn@@Base+0x4d341>
    8e3b:	48 8b 7c 24 10       	mov    0x10(%rsp),%rdi
    8e40:	ff 15 32 0f 05 00    	call   *0x50f32(%rip)        # 59d78 <warn@@Base+0x4d341>
    8e46:	48 89 ef             	mov    %rbp,%rdi
    8e49:	ff 15 29 0f 05 00    	call   *0x50f29(%rip)        # 59d78 <warn@@Base+0x4d341>
    8e4f:	e9 79 ff ff ff       	jmp    8dcd <error@@Base+0x7c5>
    8e54:	48 8b 4c 24 30       	mov    0x30(%rsp),%rcx
    8e59:	48 8b 94 24 98 00 00 	mov    0x98(%rsp),%rdx
    8e60:	00 
    8e61:	be 01 00 00 00       	mov    $0x1,%esi
    8e66:	4c 89 ff             	mov    %r15,%rdi
    8e69:	e8 49 0f 02 00       	call   29db7 <warn@@Base+0x1d380>
    8e6e:	48 89 04 24          	mov    %rax,(%rsp)
    8e72:	48 85 c0             	test   %rax,%rax
    8e75:	0f 85 61 fe ff ff    	jne    8cdc <error@@Base+0x6d4>
    8e7b:	4c 89 f3             	mov    %r14,%rbx
    8e7e:	48 8b 7c 24 10       	mov    0x10(%rsp),%rdi
    8e83:	4c 8b 6c 24 20       	mov    0x20(%rsp),%r13
    8e88:	44 8b 74 24 48       	mov    0x48(%rsp),%r14d
    8e8d:	ff 15 e5 0e 05 00    	call   *0x50ee5(%rip)        # 59d78 <warn@@Base+0x4d341>
    8e93:	48 89 df             	mov    %rbx,%rdi
    8e96:	ff 15 dc 0e 05 00    	call   *0x50edc(%rip)        # 59d78 <warn@@Base+0x4d341>
    8e9c:	e9 2c ff ff ff       	jmp    8dcd <error@@Base+0x7c5>
    8ea1:	e8 84 8f 01 00       	call   21e2a <warn@@Base+0x153f3>
    8ea6:	4c 89 f7             	mov    %r14,%rdi
    8ea9:	ff 15 c9 0e 05 00    	call   *0x50ec9(%rip)        # 59d78 <warn@@Base+0x4d341>
    8eaf:	e9 ba fb ff ff       	jmp    8a6e <error@@Base+0x466>
    8eb4:	4c 8b 54 24 30       	mov    0x30(%rsp),%r10
    8eb9:	44 89 34 24          	mov    %r14d,(%rsp)
    8ebd:	4c 89 e3             	mov    %r12,%rbx
    8ec0:	31 ed                	xor    %ebp,%ebp
    8ec2:	48 8d 84 24 e0 00 00 	lea    0xe0(%rsp),%rax
    8ec9:	00 
    8eca:	4b 8d 34 d4          	lea    (%r12,%r10,8),%rsi
    8ece:	48 89 44 24 48       	mov    %rax,0x48(%rsp)
    8ed3:	48 89 74 24 20       	mov    %rsi,0x20(%rsp)
    8ed8:	48 39 5c 24 20       	cmp    %rbx,0x20(%rsp)
    8edd:	76 2a                	jbe    8f09 <error@@Base+0x901>
    8edf:	4d 8b 5f 08          	mov    0x8(%r15),%r11
    8ee3:	48 8b 54 24 48       	mov    0x48(%rsp),%rdx
    8ee8:	4c 89 ff             	mov    %r15,%rdi
    8eeb:	48 8b 33             	mov    (%rbx),%rsi
    8eee:	41 ff 93 18 02 00 00 	call   *0x218(%r11)
    8ef5:	80 bc 24 e8 00 00 00 	cmpb   $0x2d,0xe8(%rsp)
    8efc:	2d 
    8efd:	0f 84 9a 05 00 00    	je     949d <error@@Base+0xe95>
    8f03:	48 83 c3 08          	add    $0x8,%rbx
    8f07:	eb cf                	jmp    8ed8 <error@@Base+0x8d0>
    8f09:	44 8b 34 24          	mov    (%rsp),%r14d
    8f0d:	e8 18 8f 01 00       	call   21e2a <warn@@Base+0x153f3>
    8f12:	48 85 ed             	test   %rbp,%rbp
    8f15:	0f 84 a5 fb ff ff    	je     8ac0 <error@@Base+0x4b8>
    8f1b:	48 89 ee             	mov    %rbp,%rsi
    8f1e:	4c 89 ef             	mov    %r13,%rdi
    8f21:	e8 44 a6 01 00       	call   2356a <warn@@Base+0x16b33>
    8f26:	84 c0                	test   %al,%al
    8f28:	0f 85 92 fb ff ff    	jne    8ac0 <error@@Base+0x4b8>
    8f2e:	e9 9a fe ff ff       	jmp    8dcd <error@@Base+0x7c5>
    8f33:	ba 05 00 00 00       	mov    $0x5,%edx
    8f38:	48 8d 35 5a 73 03 00 	lea    0x3735a(%rip),%rsi        # 40299 <warn@@Base+0x33862>
    8f3f:	31 ff                	xor    %edi,%edi
    8f41:	ff 15 31 0d 05 00    	call   *0x50d31(%rip)        # 59c78 <warn@@Base+0x4d241>
    8f47:	49 89 c0             	mov    %rax,%r8
    8f4a:	e9 21 5d 02 00       	jmp    2ec70 <warn@@Base+0x22239>
    8f4f:	49 8b 3f             	mov    (%r15),%rdi
    8f52:	e8 d9 2e 03 00       	call   3be30 <warn@@Base+0x2f3f9>
    8f57:	45 31 ed             	xor    %r13d,%r13d
    8f5a:	e9 14 56 02 00       	jmp    2e573 <warn@@Base+0x21b3c>
    8f5f:	49 8b 1f             	mov    (%r15),%rbx
    8f62:	41 f6 47 44 40       	testb  $0x40,0x44(%r15)
    8f67:	0f 85 14 04 00 00    	jne    9381 <error@@Base+0xd79>
    8f6d:	ba 05 00 00 00       	mov    $0x5,%edx
    8f72:	48 8d 35 83 74 03 00 	lea    0x37483(%rip),%rsi        # 403fc <warn@@Base+0x339c5>
    8f79:	31 ff                	xor    %edi,%edi
    8f7b:	45 31 ed             	xor    %r13d,%r13d
    8f7e:	ff 15 f4 0c 05 00    	call   *0x50cf4(%rip)        # 59c78 <warn@@Base+0x4d241>
    8f84:	48 89 de             	mov    %rbx,%rsi
    8f87:	48 89 c7             	mov    %rax,%rdi
    8f8a:	31 c0                	xor    %eax,%eax
    8f8c:	e8 5f 18 03 00       	call   3a7f0 <warn@@Base+0x2ddb9>
    8f91:	c7 05 e9 2d 05 00 01 	movl   $0x1,0x52de9(%rip)        # 5bd84 <warn@@Base+0x4f34d>
    8f98:	00 00 00 
    8f9b:	48 c7 05 6a 4e 05 00 	movq   $0x0,0x54e6a(%rip)        # 5de10 <warn@@Base+0x513d9>
    8fa2:	00 00 00 00 
    8fa6:	e9 e8 55 02 00       	jmp    2e593 <warn@@Base+0x21b5c>
    8fab:	4c 8b 25 0e 4f 05 00 	mov    0x54f0e(%rip),%r12        # 5dec0 <warn@@Base+0x51489>
    8fb2:	48 8b 2d ff 4e 05 00 	mov    0x54eff(%rip),%rbp        # 5deb8 <warn@@Base+0x51481>
    8fb9:	48 c7 84 24 c8 00 00 	movq   $0x0,0xc8(%rsp)
    8fc0:	00 00 00 00 00 
    8fc5:	4d 85 e4             	test   %r12,%r12
    8fc8:	0f 84 62 02 00 00    	je     9230 <error@@Base+0xc28>
    8fce:	48 8d 94 24 c0 00 00 	lea    0xc0(%rsp),%rdx
    8fd5:	00 
    8fd6:	4c 89 e6             	mov    %r12,%rsi
    8fd9:	4c 89 ff             	mov    %r15,%rdi
    8fdc:	e8 50 13 02 00       	call   2a331 <warn@@Base+0x1d8fa>
    8fe1:	66 49 0f 6e cc       	movq   %r12,%xmm1
    8fe6:	66 4c 0f 6e c0       	movq   %rax,%xmm8
    8feb:	48 89 44 24 58       	mov    %rax,0x58(%rsp)
    8ff0:	66 41 0f 6c c8       	punpcklqdq %xmm8,%xmm1
    8ff5:	48 85 c0             	test   %rax,%rax
    8ff8:	0f 84 3e 02 00 00    	je     923c <error@@Base+0xc34>
    8ffe:	4c 8b 9c 24 c0 00 00 	mov    0xc0(%rsp),%r11
    9005:	00 
    9006:	4c 8d ac 24 bc 00 00 	lea    0xbc(%rsp),%r13
    900d:	00 
    900e:	4c 89 ff             	mov    %r15,%rdi
    9011:	48 c7 84 24 f8 00 00 	movq   $0x1,0xf8(%rsp)
    9018:	00 01 00 00 00 
    901d:	0f 29 8c 24 e0 00 00 	movaps %xmm1,0xe0(%rsp)
    9024:	00 
    9025:	48 8d b4 24 e0 00 00 	lea    0xe0(%rsp),%rsi
    902c:	00 
    902d:	4c 89 ea             	mov    %r13,%rdx
    9030:	4c 89 9c 24 f0 00 00 	mov    %r11,0xf0(%rsp)
    9037:	00 
    9038:	ff 15 c2 0b 05 00    	call   *0x50bc2(%rip)        # 59c00 <warn@@Base+0x4d1c9>
    903e:	48 89 c3             	mov    %rax,%rbx
    9041:	48 85 c0             	test   %rax,%rax
    9044:	0f 84 fa 01 00 00    	je     9244 <error@@Base+0xc3c>
    904a:	4c 89 ea             	mov    %r13,%rdx
    904d:	48 89 ee             	mov    %rbp,%rsi
    9050:	48 89 c7             	mov    %rax,%rdi
    9053:	ff 15 af 0c 05 00    	call   *0x50caf(%rip)        # 59d08 <warn@@Base+0x4d2d1>
    9059:	48 89 44 24 50       	mov    %rax,0x50(%rsp)
    905e:	48 85 c0             	test   %rax,%rax
    9061:	0f 84 1d 02 00 00    	je     9284 <error@@Base+0xc7c>
    9067:	4c 89 e7             	mov    %r12,%rdi
    906a:	e8 21 48 02 00       	call   2d890 <warn@@Base+0x20e59>
    906f:	ba 05 00 00 00       	mov    $0x5,%edx
    9074:	48 8d 35 af 73 03 00 	lea    0x373af(%rip),%rsi        # 4042a <warn@@Base+0x339f3>
    907b:	31 ff                	xor    %edi,%edi
    907d:	48 89 c5             	mov    %rax,%rbp
    9080:	ff 15 f2 0b 05 00    	call   *0x50bf2(%rip)        # 59c78 <warn@@Base+0x4d241>
    9086:	48 89 ea             	mov    %rbp,%rdx
    9089:	bf 01 00 00 00       	mov    $0x1,%edi
    908e:	48 89 c6             	mov    %rax,%rsi
    9091:	31 c0                	xor    %eax,%eax
    9093:	ff 15 6f 0a 05 00    	call   *0x50a6f(%rip)        # 59b08 <warn@@Base+0x4d0d1>
    9099:	48 8d b4 24 d0 00 00 	lea    0xd0(%rsp),%rsi
    90a0:	00 
    90a1:	48 8d 84 24 c8 00 00 	lea    0xc8(%rsp),%rax
    90a8:	00 
    90a9:	48 c7 44 24 48 00 00 	movq   $0x0,0x48(%rsp)
    90b0:	00 00 
    90b2:	48 89 74 24 68       	mov    %rsi,0x68(%rsp)
    90b7:	48 89 44 24 60       	mov    %rax,0x60(%rsp)
    90bc:	4c 89 7c 24 78       	mov    %r15,0x78(%rsp)
    90c1:	44 89 b4 24 84 00 00 	mov    %r14d,0x84(%rsp)
    90c8:	00 
    90c9:	48 8b 54 24 68       	mov    0x68(%rsp),%rdx
    90ce:	48 8b 74 24 60       	mov    0x60(%rsp),%rsi
    90d3:	4d 89 e8             	mov    %r13,%r8
    90d6:	31 c9                	xor    %ecx,%ecx
    90d8:	48 89 df             	mov    %rbx,%rdi
    90db:	ff 15 b7 0c 05 00    	call   *0x50cb7(%rip)        # 59d98 <warn@@Base+0x4d361>
    90e1:	48 89 c5             	mov    %rax,%rbp
    90e4:	48 85 c0             	test   %rax,%rax
    90e7:	0f 84 d7 01 00 00    	je     92c4 <error@@Base+0xcbc>
    90ed:	4c 8b bc 24 d0 00 00 	mov    0xd0(%rsp),%r15
    90f4:	00 
    90f5:	66 44 0f 6f 04 24    	movdqa (%rsp),%xmm8
    90fb:	48 8d 35 24 71 03 00 	lea    0x37124(%rip),%rsi        # 40226 <warn@@Base+0x337ef>
    9102:	66 44 0f 6f 4c 24 10 	movdqa 0x10(%rsp),%xmm9
    9109:	66 44 0f 6f 54 24 20 	movdqa 0x20(%rsp),%xmm10
    9110:	66 44 0f 6f 5c 24 30 	movdqa 0x30(%rsp),%xmm11
    9117:	4c 89 ff             	mov    %r15,%rdi
    911a:	44 0f 29 84 24 60 01 	movaps %xmm8,0x160(%rsp)
    9121:	00 00 
    9123:	44 0f 29 8c 24 70 01 	movaps %xmm9,0x170(%rsp)
    912a:	00 00 
    912c:	44 0f 29 94 24 80 01 	movaps %xmm10,0x180(%rsp)
    9133:	00 00 
    9135:	44 0f 29 9c 24 90 01 	movaps %xmm11,0x190(%rsp)
    913c:	00 00 
    913e:	ff 15 04 0d 05 00    	call   *0x50d04(%rip)        # 59e48 <warn@@Base+0x4d411>
    9144:	85 c0                	test   %eax,%eax
    9146:	75 08                	jne    9150 <error@@Base+0xb48>
    9148:	48 83 7c 24 48 00    	cmpq   $0x0,0x48(%rsp)
    914e:	74 32                	je     9182 <error@@Base+0xb7a>
    9150:	4c 89 ff             	mov    %r15,%rdi
    9153:	e8 38 47 02 00       	call   2d890 <warn@@Base+0x20e59>
    9158:	ba 05 00 00 00       	mov    $0x5,%edx
    915d:	48 8d 35 e3 72 03 00 	lea    0x372e3(%rip),%rsi        # 40447 <warn@@Base+0x33a10>
    9164:	31 ff                	xor    %edi,%edi
    9166:	49 89 c4             	mov    %rax,%r12
    9169:	ff 15 09 0b 05 00    	call   *0x50b09(%rip)        # 59c78 <warn@@Base+0x4d241>
    916f:	4c 89 e2             	mov    %r12,%rdx
    9172:	bf 01 00 00 00       	mov    $0x1,%edi
    9177:	48 89 c6             	mov    %rax,%rsi
    917a:	31 c0                	xor    %eax,%eax
    917c:	ff 15 86 09 05 00    	call   *0x50986(%rip)        # 59b08 <warn@@Base+0x4d0d1>
    9182:	48 89 ef             	mov    %rbp,%rdi
    9185:	ff 15 b5 0b 05 00    	call   *0x50bb5(%rip)        # 59d40 <warn@@Base+0x4d309>
    918b:	48 85 c0             	test   %rax,%rax
    918e:	74 0e                	je     919e <error@@Base+0xb96>
    9190:	48 8b 74 24 50       	mov    0x50(%rsp),%rsi
    9195:	48 89 ef             	mov    %rbp,%rdi
    9198:	ff 15 d2 0c 05 00    	call   *0x50cd2(%rip)        # 59e70 <warn@@Base+0x4d439>
    919e:	48 8d 94 24 d8 00 00 	lea    0xd8(%rsp),%rdx
    91a5:	00 
    91a6:	45 31 f6             	xor    %r14d,%r14d
    91a9:	4c 8d 25 7b 70 03 00 	lea    0x3707b(%rip),%r12        # 4022b <warn@@Base+0x337f4>
    91b0:	48 89 54 24 70       	mov    %rdx,0x70(%rsp)
    91b5:	4c 89 e2             	mov    %r12,%rdx
    91b8:	48 8d 35 a2 72 03 00 	lea    0x372a2(%rip),%rsi        # 40461 <warn@@Base+0x33a2a>
    91bf:	31 c0                	xor    %eax,%eax
    91c1:	45 89 f7             	mov    %r14d,%r15d
    91c4:	48 c7 84 24 d8 00 00 	movq   $0x0,0xd8(%rsp)
    91cb:	00 00 00 00 00 
    91d0:	bf 01 00 00 00       	mov    $0x1,%edi
    91d5:	ff 15 2d 09 05 00    	call   *0x5092d(%rip)        # 59b08 <warn@@Base+0x4d0d1>
    91db:	48 89 ef             	mov    %rbp,%rdi
    91de:	48 8b 74 24 70       	mov    0x70(%rsp),%rsi
    91e3:	44 89 fa             	mov    %r15d,%edx
    91e6:	4c 8d 05 f2 73 03 00 	lea    0x373f2(%rip),%r8        # 405df <warn@@Base+0x33ba8>
    91ed:	48 8d 0d 98 2b 01 00 	lea    0x12b98(%rip),%rcx        # 1bd8c <warn@@Base+0xf355>
    91f4:	ff 15 4e 09 05 00    	call   *0x5094e(%rip)        # 59b48 <warn@@Base+0x4d111>
    91fa:	48 89 c7             	mov    %rax,%rdi
    91fd:	48 85 c0             	test   %rax,%rax
    9200:	0f 84 13 05 00 00    	je     9719 <error@@Base+0x1111>
    9206:	48 89 bc 24 88 00 00 	mov    %rdi,0x88(%rsp)
    920d:	00 
    920e:	ff 15 9c 0c 05 00    	call   *0x50c9c(%rip)        # 59eb0 <warn@@Base+0x4d479>
    9214:	48 8b bc 24 88 00 00 	mov    0x88(%rsp),%rdi
    921b:	00 
    921c:	ff 15 56 0b 05 00    	call   *0x50b56(%rip)        # 59d78 <warn@@Base+0x4d341>
    9222:	eb b7                	jmp    91db <error@@Base+0xbd3>
    9224:	4c 8d 0d e1 44 02 00 	lea    0x244e1(%rip),%r9        # 2d70c <warn@@Base+0x20cd5>
    922b:	e9 f2 49 02 00       	jmp    2dc22 <warn@@Base+0x211eb>
    9230:	4c 8d 25 ef 6f 03 00 	lea    0x36fef(%rip),%r12        # 40226 <warn@@Base+0x337ef>
    9237:	e9 92 fd ff ff       	jmp    8fce <error@@Base+0x9c6>
    923c:	49 8b 3f             	mov    (%r15),%rdi
    923f:	e8 ec 2b 03 00       	call   3be30 <warn@@Base+0x2f3f9>
    9244:	31 ff                	xor    %edi,%edi
    9246:	e8 c6 39 01 00       	call   1cc11 <warn@@Base+0x101da>
    924b:	8b bc 24 bc 00 00 00 	mov    0xbc(%rsp),%edi
    9252:	ff 15 40 0d 05 00    	call   *0x50d40(%rip)        # 59f98 <warn@@Base+0x4d561>
    9258:	ba 05 00 00 00       	mov    $0x5,%edx
    925d:	48 8d 35 b1 71 03 00 	lea    0x371b1(%rip),%rsi        # 40415 <warn@@Base+0x339de>
    9264:	31 ff                	xor    %edi,%edi
    9266:	49 89 c4             	mov    %rax,%r12
    9269:	ff 15 09 0a 05 00    	call   *0x50a09(%rip)        # 59c78 <warn@@Base+0x4d241>
    926f:	4c 89 e6             	mov    %r12,%rsi
    9272:	48 89 c7             	mov    %rax,%rdi
    9275:	31 c0                	xor    %eax,%eax
    9277:	e8 74 15 03 00       	call   3a7f0 <warn@@Base+0x2ddb9>
    927c:	49 8b 3f             	mov    (%r15),%rdi
    927f:	e8 ac 2b 03 00       	call   3be30 <warn@@Base+0x2f3f9>
    9284:	31 ff                	xor    %edi,%edi
    9286:	e8 86 39 01 00       	call   1cc11 <warn@@Base+0x101da>
    928b:	8b bc 24 bc 00 00 00 	mov    0xbc(%rsp),%edi
    9292:	ff 15 00 0d 05 00    	call   *0x50d00(%rip)        # 59f98 <warn@@Base+0x4d561>
    9298:	ba 05 00 00 00       	mov    $0x5,%edx
    929d:	48 8d 35 71 71 03 00 	lea    0x37171(%rip),%rsi        # 40415 <warn@@Base+0x339de>
    92a4:	31 ff                	xor    %edi,%edi
    92a6:	48 89 c5             	mov    %rax,%rbp
    92a9:	ff 15 c9 09 05 00    	call   *0x509c9(%rip)        # 59c78 <warn@@Base+0x4d241>
    92af:	48 89 ee             	mov    %rbp,%rsi
    92b2:	48 89 c7             	mov    %rax,%rdi
    92b5:	31 c0                	xor    %eax,%eax
    92b7:	e8 34 15 03 00       	call   3a7f0 <warn@@Base+0x2ddb9>
    92bc:	49 8b 3f             	mov    (%r15),%rdi
    92bf:	e8 6c 2b 03 00       	call   3be30 <warn@@Base+0x2f3f9>
    92c4:	81 bc 24 bc 00 00 00 	cmpl   $0x41c,0xbc(%rsp)
    92cb:	1c 04 00 00 
    92cf:	4c 8b 7c 24 78       	mov    0x78(%rsp),%r15
    92d4:	44 8b b4 24 84 00 00 	mov    0x84(%rsp),%r14d
    92db:	00 
    92dc:	0f 85 a7 00 00 00    	jne    9389 <error@@Base+0xd81>
    92e2:	48 8b 7c 24 50       	mov    0x50(%rsp),%rdi
    92e7:	ff 15 c3 0a 05 00    	call   *0x50ac3(%rip)        # 59db0 <warn@@Base+0x4d379>
    92ed:	48 89 df             	mov    %rbx,%rdi
    92f0:	ff 15 ba 09 05 00    	call   *0x509ba(%rip)        # 59cb0 <warn@@Base+0x4d279>
    92f6:	48 8b 7c 24 58       	mov    0x58(%rsp),%rdi
    92fb:	ff 15 77 0a 05 00    	call   *0x50a77(%rip)        # 59d78 <warn@@Base+0x4d341>
    9301:	83 3d a8 4b 05 00 00 	cmpl   $0x0,0x54ba8(%rip)        # 5deb0 <warn@@Base+0x51479>
    9308:	0f 84 35 4b 02 00    	je     2de43 <warn@@Base+0x2140c>
    930e:	4c 89 ff             	mov    %r15,%rdi
    9311:	48 8d 15 ad 71 03 00 	lea    0x371ad(%rip),%rdx        # 404c5 <warn@@Base+0x33a8e>
    9318:	48 8d 35 63 71 03 00 	lea    0x37163(%rip),%rsi        # 40482 <warn@@Base+0x33a4b>
    931f:	e8 78 38 01 00       	call   1cb9c <warn@@Base+0x10165>
    9324:	4c 89 ff             	mov    %r15,%rdi
    9327:	48 8d 15 5a 71 03 00 	lea    0x3715a(%rip),%rdx        # 40488 <warn@@Base+0x33a51>
    932e:	48 8d 35 61 71 03 00 	lea    0x37161(%rip),%rsi        # 40496 <warn@@Base+0x33a5f>
    9335:	e8 62 38 01 00       	call   1cb9c <warn@@Base+0x10165>
    933a:	4c 89 ff             	mov    %r15,%rdi
    933d:	48 8d 15 5d 71 03 00 	lea    0x3715d(%rip),%rdx        # 404a1 <warn@@Base+0x33a6a>
    9344:	48 8d 35 65 71 03 00 	lea    0x37165(%rip),%rsi        # 404b0 <warn@@Base+0x33a79>
    934b:	e8 4c 38 01 00       	call   1cb9c <warn@@Base+0x10165>
    9350:	4c 89 ff             	mov    %r15,%rdi
    9353:	48 8d 15 62 71 03 00 	lea    0x37162(%rip),%rdx        # 404bc <warn@@Base+0x33a85>
    935a:	48 8d 35 6d 71 03 00 	lea    0x3716d(%rip),%rsi        # 404ce <warn@@Base+0x33a97>
    9361:	e8 36 38 01 00       	call   1cb9c <warn@@Base+0x10165>
    9366:	48 8d 15 71 71 03 00 	lea    0x37171(%rip),%rdx        # 404de <warn@@Base+0x33aa7>
    936d:	48 8d 35 78 71 03 00 	lea    0x37178(%rip),%rsi        # 404ec <warn@@Base+0x33ab5>
    9374:	4c 89 ff             	mov    %r15,%rdi
    9377:	e8 20 38 01 00       	call   1cb9c <warn@@Base+0x10165>
    937c:	e9 c2 4a 02 00       	jmp    2de43 <warn@@Base+0x2140c>
    9381:	48 89 df             	mov    %rbx,%rdi
    9384:	e8 a7 2a 03 00       	call   3be30 <warn@@Base+0x2f3f9>
    9389:	31 ff                	xor    %edi,%edi
    938b:	e8 81 38 01 00       	call   1cc11 <warn@@Base+0x101da>
    9390:	8b bc 24 bc 00 00 00 	mov    0xbc(%rsp),%edi
    9397:	ff 15 fb 0b 05 00    	call   *0x50bfb(%rip)        # 59f98 <warn@@Base+0x4d561>
    939d:	ba 05 00 00 00       	mov    $0x5,%edx
    93a2:	48 8d 35 cf 88 03 00 	lea    0x388cf(%rip),%rsi        # 41c78 <warn@@Base+0x35241>
    93a9:	31 ff                	xor    %edi,%edi
    93ab:	49 89 c5             	mov    %rax,%r13
    93ae:	ff 15 c4 08 05 00    	call   *0x508c4(%rip)        # 59c78 <warn@@Base+0x4d241>
    93b4:	4c 89 ee             	mov    %r13,%rsi
    93b7:	48 89 c7             	mov    %rax,%rdi
    93ba:	31 c0                	xor    %eax,%eax
    93bc:	e8 2f 14 03 00       	call   3a7f0 <warn@@Base+0x2ddb9>
    93c1:	49 8b 3f             	mov    (%r15),%rdi
    93c4:	e8 67 2a 03 00       	call   3be30 <warn@@Base+0x2f3f9>
    93c9:	e8 d2 11 03 00       	call   3a5a0 <warn@@Base+0x2db69>
    93ce:	41 0f b6 f6          	movzbl %r14b,%esi
    93d2:	4c 89 ff             	mov    %r15,%rdi
    93d5:	e8 e6 22 03 00       	call   3b6c0 <warn@@Base+0x2ec89>
    93da:	48 8b 2d 47 4a 05 00 	mov    0x54a47(%rip),%rbp        # 5de28 <warn@@Base+0x513f1>
    93e1:	e9 b0 4a 02 00       	jmp    2de96 <warn@@Base+0x2145f>
    93e6:	48 89 d9             	mov    %rbx,%rcx
    93e9:	ba 26 00 00 00       	mov    $0x26,%edx
    93ee:	be 01 00 00 00       	mov    $0x1,%esi
    93f3:	48 8d 3d 0e 89 03 00 	lea    0x3890e(%rip),%rdi        # 41d08 <warn@@Base+0x352d1>
    93fa:	ff 15 e0 0b 05 00    	call   *0x50be0(%rip)        # 59fe0 <warn@@Base+0x4d5a9>
    9400:	48 89 d9             	mov    %rbx,%rcx
    9403:	ba 2b 00 00 00       	mov    $0x2b,%edx
    9408:	be 01 00 00 00       	mov    $0x1,%esi
    940d:	48 8d 3d 1c 89 03 00 	lea    0x3891c(%rip),%rdi        # 41d30 <warn@@Base+0x352f9>
    9414:	ff 15 c6 0b 05 00    	call   *0x50bc6(%rip)        # 59fe0 <warn@@Base+0x4d5a9>
    941a:	48 89 d9             	mov    %rbx,%rcx
    941d:	ba 48 00 00 00       	mov    $0x48,%edx
    9422:	be 01 00 00 00       	mov    $0x1,%esi
    9427:	48 8d 3d 32 89 03 00 	lea    0x38932(%rip),%rdi        # 41d60 <warn@@Base+0x35329>
    942e:	ff 15 ac 0b 05 00    	call   *0x50bac(%rip)        # 59fe0 <warn@@Base+0x4d5a9>
    9434:	48 89 d9             	mov    %rbx,%rcx
    9437:	ba 2f 00 00 00       	mov    $0x2f,%edx
    943c:	be 01 00 00 00       	mov    $0x1,%esi
    9441:	48 8d 3d 68 89 03 00 	lea    0x38968(%rip),%rdi        # 41db0 <warn@@Base+0x35379>
    9448:	ff 15 92 0b 05 00    	call   *0x50b92(%rip)        # 59fe0 <warn@@Base+0x4d5a9>
    944e:	48 8d 94 24 e0 00 00 	lea    0xe0(%rsp),%rdx
    9455:	00 
    9456:	48 8d 35 83 fe 04 00 	lea    0x4fe83(%rip),%rsi        # 592e0 <warn@@Base+0x4c8a9>
    945d:	4c 89 ef             	mov    %r13,%rdi
    9460:	e8 3a 9f 01 00       	call   2339f <warn@@Base+0x16968>
    9465:	e9 20 f7 ff ff       	jmp    8b8a <error@@Base+0x582>
    946a:	4d 8b 3f             	mov    (%r15),%r15
    946d:	ba 05 00 00 00       	mov    $0x5,%edx
    9472:	48 8d 35 67 89 03 00 	lea    0x38967(%rip),%rsi        # 41de0 <warn@@Base+0x353a9>
    9479:	31 ff                	xor    %edi,%edi
    947b:	ff 15 f7 07 05 00    	call   *0x507f7(%rip)        # 59c78 <warn@@Base+0x4d241>
    9481:	48 89 c7             	mov    %rax,%rdi
    9484:	4c 89 fe             	mov    %r15,%rsi
    9487:	31 c0                	xor    %eax,%eax
    9489:	e8 62 13 03 00       	call   3a7f0 <warn@@Base+0x2ddb9>
    948e:	c7 05 ec 28 05 00 01 	movl   $0x1,0x528ec(%rip)        # 5bd84 <warn@@Base+0x4f34d>
    9495:	00 00 00 
    9498:	e9 f5 f6 ff ff       	jmp    8b92 <error@@Base+0x58a>
    949d:	48 85 ed             	test   %rbp,%rbp
    94a0:	0f 84 4c 02 00 00    	je     96f2 <error@@Base+0x10ea>
    94a6:	4c 8b b4 24 f0 00 00 	mov    0xf0(%rsp),%r14
    94ad:	00 
    94ae:	4d 85 f6             	test   %r14,%r14
    94b1:	0f 84 59 02 00 00    	je     9710 <error@@Base+0x1108>
    94b7:	41 80 3e 00          	cmpb   $0x0,(%r14)
    94bb:	0f 84 4f 02 00 00    	je     9710 <error@@Base+0x1108>
    94c1:	48 c7 44 24 10 00 00 	movq   $0x0,0x10(%rsp)
    94c8:	00 00 
    94ca:	4c 89 f7             	mov    %r14,%rdi
    94cd:	ff 15 fd 06 05 00    	call   *0x506fd(%rip)        # 59bd0 <warn@@Base+0x4d199>
    94d3:	41 80 7c 06 ff 5c    	cmpb   $0x5c,-0x1(%r14,%rax,1)
    94d9:	0f 85 a6 05 00 00    	jne    9a85 <error@@Base+0x147d>
    94df:	48 8d 7b 08          	lea    0x8(%rbx),%rdi
    94e3:	48 39 7c 24 20       	cmp    %rdi,0x20(%rsp)
    94e8:	0f 86 97 05 00 00    	jbe    9a85 <error@@Base+0x147d>
    94ee:	48 89 7c 24 58       	mov    %rdi,0x58(%rsp)
    94f3:	4c 89 f7             	mov    %r14,%rdi
    94f6:	ff 15 c4 06 05 00    	call   *0x506c4(%rip)        # 59bc0 <warn@@Base+0x4d189>
    94fc:	48 89 c7             	mov    %rax,%rdi
    94ff:	48 89 44 24 50       	mov    %rax,0x50(%rsp)
    9504:	ff 15 c6 06 05 00    	call   *0x506c6(%rip)        # 59bd0 <warn@@Base+0x4d199>
    950a:	48 8b 7c 24 50       	mov    0x50(%rsp),%rdi
    950f:	31 d2                	xor    %edx,%edx
    9511:	c6 44 07 ff 00       	movb   $0x0,-0x1(%rdi,%rax,1)
    9516:	48 8b 4b 08          	mov    0x8(%rbx),%rcx
    951a:	31 c0                	xor    %eax,%eax
    951c:	48 8b 71 08          	mov    0x8(%rcx),%rsi
    9520:	ff 15 7a 07 05 00    	call   *0x5077a(%rip)        # 59ca0 <warn@@Base+0x4d269>
    9526:	48 8b 7c 24 50       	mov    0x50(%rsp),%rdi
    952b:	49 89 c6             	mov    %rax,%r14
    952e:	ff 15 44 08 05 00    	call   *0x50844(%rip)        # 59d78 <warn@@Base+0x4d341>
    9534:	48 8b 7c 24 10       	mov    0x10(%rsp),%rdi
    9539:	ff 15 39 08 05 00    	call   *0x50839(%rip)        # 59d78 <warn@@Base+0x4d341>
    953f:	41 80 3e 00          	cmpb   $0x0,(%r14)
    9543:	48 8b 5c 24 58       	mov    0x58(%rsp),%rbx
    9548:	0f 84 37 05 00 00    	je     9a85 <error@@Base+0x147d>
    954e:	4c 89 74 24 10       	mov    %r14,0x10(%rsp)
    9553:	e9 72 ff ff ff       	jmp    94ca <error@@Base+0xec2>
    9558:	45 89 eb             	mov    %r13d,%r11d
    955b:	4c 03 5c 24 70       	add    0x70(%rsp),%r11
    9560:	4c 39 5c 24 68       	cmp    %r11,0x68(%rsp)
    9565:	0f 86 a3 00 00 00    	jbe    960e <error@@Base+0x1006>
    956b:	48 8b 74 24 10       	mov    0x10(%rsp),%rsi
    9570:	48 89 44 24 58       	mov    %rax,0x58(%rsp)
    9575:	48 89 dd             	mov    %rbx,%rbp
    9578:	48 c7 44 24 78 00 00 	movq   $0x0,0x78(%rsp)
    957f:	00 00 
    9581:	4e 8d 2c 1e          	lea    (%rsi,%r11,1),%r13
    9585:	4c 89 ef             	mov    %r13,%rdi
    9588:	ff 15 42 06 05 00    	call   *0x50642(%rip)        # 59bd0 <warn@@Base+0x4d199>
    958e:	48 85 c0             	test   %rax,%rax
    9591:	0f 84 d3 00 00 00    	je     966a <error@@Base+0x1062>
    9597:	49 8d 5c 05 ff       	lea    -0x1(%r13,%rax,1),%rbx
    959c:	80 3b 5c             	cmpb   $0x5c,(%rbx)
    959f:	0f 85 c5 00 00 00    	jne    966a <error@@Base+0x1062>
    95a5:	4c 8d 55 10          	lea    0x10(%rbp),%r10
    95a9:	4c 39 94 24 a8 00 00 	cmp    %r10,0xa8(%rsp)
    95b0:	00 
    95b1:	0f 82 b3 00 00 00    	jb     966a <error@@Base+0x1062>
    95b7:	49 8b 47 08          	mov    0x8(%r15),%rax
    95bb:	48 83 c5 0c          	add    $0xc,%rbp
    95bf:	c6 03 00             	movb   $0x0,(%rbx)
    95c2:	48 89 ef             	mov    %rbp,%rdi
    95c5:	ff 50 40             	call   *0x40(%rax)
    95c8:	48 8b 54 24 70       	mov    0x70(%rsp),%rdx
    95cd:	01 d0                	add    %edx,%eax
    95cf:	41 89 c0             	mov    %eax,%r8d
    95d2:	4c 39 44 24 68       	cmp    %r8,0x68(%rsp)
    95d7:	0f 86 ad 01 00 00    	jbe    978a <error@@Base+0x1182>
    95dd:	4c 8b 4c 24 10       	mov    0x10(%rsp),%r9
    95e2:	4c 89 ef             	mov    %r13,%rdi
    95e5:	31 d2                	xor    %edx,%edx
    95e7:	31 c0                	xor    %eax,%eax
    95e9:	4b 8d 34 01          	lea    (%r9,%r8,1),%rsi
    95ed:	ff 15 ad 06 05 00    	call   *0x506ad(%rip)        # 59ca0 <warn@@Base+0x4d269>
    95f3:	c6 03 5c             	movb   $0x5c,(%rbx)
    95f6:	48 8b 7c 24 78       	mov    0x78(%rsp),%rdi
    95fb:	49 89 c5             	mov    %rax,%r13
    95fe:	ff 15 74 07 05 00    	call   *0x50774(%rip)        # 59d78 <warn@@Base+0x4d341>
    9604:	4c 89 6c 24 78       	mov    %r13,0x78(%rsp)
    9609:	e9 77 ff ff ff       	jmp    9585 <error@@Base+0xf7d>
    960e:	49 8b 2f             	mov    (%r15),%rbp
    9611:	ba 05 00 00 00       	mov    $0x5,%edx
    9616:	48 8d 35 83 86 03 00 	lea    0x38683(%rip),%rsi        # 41ca0 <warn@@Base+0x35269>
    961d:	31 ff                	xor    %edi,%edi
    961f:	ff 15 53 06 05 00    	call   *0x50653(%rip)        # 59c78 <warn@@Base+0x4d241>
    9625:	41 b8 0c 00 00 00    	mov    $0xc,%r8d
    962b:	41 54                	push   %r12
    962d:	4c 8b 25 d4 07 05 00 	mov    0x507d4(%rip),%r12        # 59e08 <warn@@Base+0x4d3d1>
    9634:	48 89 c6             	mov    %rax,%rsi
    9637:	48 89 d8             	mov    %rbx,%rax
    963a:	41 55                	push   %r13
    963c:	48 89 e9             	mov    %rbp,%rcx
    963f:	4c 29 f0             	sub    %r14,%rax
    9642:	49 8b 3c 24          	mov    (%r12),%rdi
    9646:	48 99                	cqto   
    9648:	49 f7 f8             	idiv   %r8
    964b:	4c 8b 44 24 70       	mov    0x70(%rsp),%r8
    9650:	48 89 f2             	mov    %rsi,%rdx
    9653:	be 01 00 00 00       	mov    $0x1,%esi
    9658:	49 89 c1             	mov    %rax,%r9
    965b:	31 c0                	xor    %eax,%eax
    965d:	ff 15 8d 08 05 00    	call   *0x5088d(%rip)        # 59ef0 <warn@@Base+0x4d4b9>
    9663:	58                   	pop    %rax
    9664:	5a                   	pop    %rdx
    9665:	e9 06 f7 ff ff       	jmp    8d70 <error@@Base+0x768>
    966a:	48 89 eb             	mov    %rbp,%rbx
    966d:	48 8b 6c 24 58       	mov    0x58(%rsp),%rbp
    9672:	8b b4 24 88 00 00 00 	mov    0x88(%rsp),%esi
    9679:	4c 89 e9             	mov    %r13,%rcx
    967c:	48 89 ea             	mov    %rbp,%rdx
    967f:	44 89 e7             	mov    %r12d,%edi
    9682:	e8 b4 85 01 00       	call   21c3b <warn@@Base+0x15204>
    9687:	48 8b 34 24          	mov    (%rsp),%rsi
    968b:	4d 89 e9             	mov    %r13,%r9
    968e:	49 89 e8             	mov    %rbp,%r8
    9691:	8b 8c 24 88 00 00 00 	mov    0x88(%rsp),%ecx
    9698:	48 8b 7c 24 20       	mov    0x20(%rsp),%rdi
    969d:	44 89 e2             	mov    %r12d,%edx
    96a0:	e8 87 f1 01 00       	call   2882c <warn@@Base+0x1bdf5>
    96a5:	84 c0                	test   %al,%al
    96a7:	0f 85 c3 f6 ff ff    	jne    8d70 <error@@Base+0x768>
    96ad:	4c 89 f3             	mov    %r14,%rbx
    96b0:	4c 8b 6c 24 20       	mov    0x20(%rsp),%r13
    96b5:	44 8b 74 24 48       	mov    0x48(%rsp),%r14d
    96ba:	e8 07 86 01 00       	call   21cc6 <warn@@Base+0x1528f>
    96bf:	e8 66 87 01 00       	call   21e2a <warn@@Base+0x153f3>
    96c4:	48 8b 7c 24 78       	mov    0x78(%rsp),%rdi
    96c9:	ff 15 a9 06 05 00    	call   *0x506a9(%rip)        # 59d78 <warn@@Base+0x4d341>
    96cf:	48 8b 3c 24          	mov    (%rsp),%rdi
    96d3:	ff 15 9f 06 05 00    	call   *0x5069f(%rip)        # 59d78 <warn@@Base+0x4d341>
    96d9:	48 89 df             	mov    %rbx,%rdi
    96dc:	ff 15 96 06 05 00    	call   *0x50696(%rip)        # 59d78 <warn@@Base+0x4d341>
    96e2:	48 8b 7c 24 10       	mov    0x10(%rsp),%rdi
    96e7:	ff 15 8b 06 05 00    	call   *0x5068b(%rip)        # 59d78 <warn@@Base+0x4d341>
    96ed:	e9 db f6 ff ff       	jmp    8dcd <error@@Base+0x7c5>
    96f2:	48 8b 4c 24 30       	mov    0x30(%rsp),%rcx
    96f7:	4c 89 e2             	mov    %r12,%rdx
    96fa:	31 f6                	xor    %esi,%esi
    96fc:	4c 89 ff             	mov    %r15,%rdi
    96ff:	e8 b3 06 02 00       	call   29db7 <warn@@Base+0x1d380>
    9704:	48 89 c5             	mov    %rax,%rbp
    9707:	48 85 c0             	test   %rax,%rax
    970a:	0f 85 96 fd ff ff    	jne    94a6 <error@@Base+0xe9e>
    9710:	44 8b 34 24          	mov    (%rsp),%r14d
    9714:	e9 b4 f6 ff ff       	jmp    8dcd <error@@Base+0x7c5>
    9719:	48 89 ef             	mov    %rbp,%rdi
    971c:	ff 15 2e 05 05 00    	call   *0x5052e(%rip)        # 59c50 <warn@@Base+0x4d219>
    9722:	85 c0                	test   %eax,%eax
    9724:	75 19                	jne    973f <error@@Base+0x1137>
    9726:	49 83 c6 01          	add    $0x1,%r14
    972a:	4e 8b a4 f4 60 01 00 	mov    0x160(%rsp,%r14,8),%r12
    9731:	00 
    9732:	41 80 3c 24 00       	cmpb   $0x0,(%r12)
    9737:	0f 85 78 fa ff ff    	jne    91b5 <error@@Base+0xbad>
    973d:	eb 38                	jmp    9777 <error@@Base+0x116f>
    973f:	48 89 ef             	mov    %rbp,%rdi
    9742:	ff 15 08 05 05 00    	call   *0x50508(%rip)        # 59c50 <warn@@Base+0x4d219>
    9748:	89 c7                	mov    %eax,%edi
    974a:	ff 15 48 08 05 00    	call   *0x50848(%rip)        # 59f98 <warn@@Base+0x4d561>
    9750:	ba 05 00 00 00       	mov    $0x5,%edx
    9755:	48 8d 35 0d 6d 03 00 	lea    0x36d0d(%rip),%rsi        # 40469 <warn@@Base+0x33a32>
    975c:	31 ff                	xor    %edi,%edi
    975e:	49 89 c6             	mov    %rax,%r14
    9761:	ff 15 11 05 05 00    	call   *0x50511(%rip)        # 59c78 <warn@@Base+0x4d241>
    9767:	4c 89 f2             	mov    %r14,%rdx
    976a:	4c 89 e6             	mov    %r12,%rsi
    976d:	48 89 c7             	mov    %rax,%rdi
    9770:	31 c0                	xor    %eax,%eax
    9772:	e8 79 10 03 00       	call   3a7f0 <warn@@Base+0x2ddb9>
    9777:	48 89 ef             	mov    %rbp,%rdi
    977a:	e8 92 34 01 00       	call   1cc11 <warn@@Base+0x101da>
    977f:	48 83 44 24 48 01    	addq   $0x1,0x48(%rsp)
    9785:	e9 3f f9 ff ff       	jmp    90c9 <error@@Base+0xac1>
    978a:	49 8b 0f             	mov    (%r15),%rcx
    978d:	48 89 eb             	mov    %rbp,%rbx
    9790:	31 ff                	xor    %edi,%edi
    9792:	48 8b 6c 24 58       	mov    0x58(%rsp),%rbp
    9797:	ba 05 00 00 00       	mov    $0x5,%edx
    979c:	48 8d 35 3d 85 03 00 	lea    0x3853d(%rip),%rsi        # 41ce0 <warn@@Base+0x352a9>
    97a3:	48 89 4c 24 58       	mov    %rcx,0x58(%rsp)
    97a8:	ff 15 ca 04 05 00    	call   *0x504ca(%rip)        # 59c78 <warn@@Base+0x4d241>
    97ae:	41 bb 0c 00 00 00    	mov    $0xc,%r11d
    97b4:	4c 8b 44 24 60       	mov    0x60(%rsp),%r8
    97b9:	4c 8b 15 48 06 05 00 	mov    0x50648(%rip),%r10        # 59e08 <warn@@Base+0x4d3d1>
    97c0:	48 89 c7             	mov    %rax,%rdi
    97c3:	48 89 d8             	mov    %rbx,%rax
    97c6:	48 8b 4c 24 58       	mov    0x58(%rsp),%rcx
    97cb:	be 01 00 00 00       	mov    $0x1,%esi
    97d0:	4c 29 f0             	sub    %r14,%rax
    97d3:	48 99                	cqto   
    97d5:	49 f7 fb             	idiv   %r11
    97d8:	48 89 fa             	mov    %rdi,%rdx
    97db:	49 8b 3a             	mov    (%r10),%rdi
    97de:	49 89 c1             	mov    %rax,%r9
    97e1:	31 c0                	xor    %eax,%eax
    97e3:	ff 15 07 07 05 00    	call   *0x50707(%rip)        # 59ef0 <warn@@Base+0x4d4b9>
    97e9:	e9 84 fe ff ff       	jmp    9672 <error@@Base+0x106a>
    97ee:	49 8b 3f             	mov    (%r15),%rdi
    97f1:	e8 3a 26 03 00       	call   3be30 <warn@@Base+0x2f3f9>
    97f6:	48 8d 3d 18 6d 03 00 	lea    0x36d18(%rip),%rdi        # 40515 <warn@@Base+0x33ade>
    97fd:	ff 15 ad 06 05 00    	call   *0x506ad(%rip)        # 59eb0 <warn@@Base+0x4d479>
    9803:	e9 58 46 02 00       	jmp    2de60 <warn@@Base+0x21429>
    9808:	41 8b 57 44          	mov    0x44(%r15),%edx
    980c:	48 8d 35 72 1f 01 00 	lea    0x11f72(%rip),%rsi        # 1b785 <warn@@Base+0xed4e>
    9813:	4c 89 ff             	mov    %r15,%rdi
    9816:	88 94 24 e0 00 00 00 	mov    %dl,0xe0(%rsp)
    981d:	48 8d 94 24 e0 00 00 	lea    0xe0(%rsp),%rdx
    9824:	00 
    9825:	80 a4 24 e0 00 00 00 	andb   $0x1,0xe0(%rsp)
    982c:	01 
    982d:	ff 15 85 07 05 00    	call   *0x50785(%rip)        # 59fb8 <warn@@Base+0x4d581>
    9833:	45 84 f6             	test   %r14b,%r14b
    9836:	0f 85 41 44 02 00    	jne    2dc7d <warn@@Base+0x21246>
    983c:	e9 fe 4f 02 00       	jmp    2e83f <warn@@Base+0x21e08>
    9841:	31 ff                	xor    %edi,%edi
    9843:	ba 05 00 00 00       	mov    $0x5,%edx
    9848:	48 8d 35 20 6a 03 00 	lea    0x36a20(%rip),%rsi        # 4026f <warn@@Base+0x33838>
    984f:	ff 15 23 04 05 00    	call   *0x50423(%rip)        # 59c78 <warn@@Base+0x4d241>
    9855:	48 89 c7             	mov    %rax,%rdi
    9858:	31 c0                	xor    %eax,%eax
    985a:	67 e8 a8 ed ff ff    	addr32 call 8608 <error@@Base>
    9860:	e9 49 4e 02 00       	jmp    2e6ae <warn@@Base+0x21c77>
    9865:	48 8d 3d a9 6c 03 00 	lea    0x36ca9(%rip),%rdi        # 40515 <warn@@Base+0x33ade>
    986c:	ff 15 3e 06 05 00    	call   *0x5063e(%rip)        # 59eb0 <warn@@Base+0x4d479>
    9872:	e9 a1 50 02 00       	jmp    2e918 <warn@@Base+0x21ee1>
    9877:	48 8d 0d f8 6a 03 00 	lea    0x36af8(%rip),%rcx        # 40376 <warn@@Base+0x3393f>
    987e:	48 8d 35 0f c1 03 00 	lea    0x3c10f(%rip),%rsi        # 45994 <warn@@Base+0x38f5d>
    9885:	bf 01 00 00 00       	mov    $0x1,%edi
    988a:	31 c0                	xor    %eax,%eax
    988c:	ff 15 76 02 05 00    	call   *0x50276(%rip)        # 59b08 <warn@@Base+0x4d0d1>
    9892:	41 8b 47 44          	mov    0x44(%r15),%eax
    9896:	48 8d 15 bd 6a 03 00 	lea    0x36abd(%rip),%rdx        # 4035a <warn@@Base+0x33923>
    989d:	e9 3d 51 02 00       	jmp    2e9df <warn@@Base+0x21fa8>
    98a2:	31 ff                	xor    %edi,%edi
    98a4:	ba 05 00 00 00       	mov    $0x5,%edx
    98a9:	48 8d 35 80 82 03 00 	lea    0x38280(%rip),%rsi        # 41b30 <warn@@Base+0x350f9>
    98b0:	ff 15 c2 03 05 00    	call   *0x503c2(%rip)        # 59c78 <warn@@Base+0x4d241>
    98b6:	48 89 c7             	mov    %rax,%rdi
    98b9:	31 c0                	xor    %eax,%eax
    98bb:	67 e8 76 31 00 00    	addr32 call ca37 <warn@@Base>
    98c1:	e9 ba 52 02 00       	jmp    2eb80 <warn@@Base+0x22149>
    98c6:	31 ff                	xor    %edi,%edi
    98c8:	ba 05 00 00 00       	mov    $0x5,%edx
    98cd:	48 8d 35 2c 82 03 00 	lea    0x3822c(%rip),%rsi        # 41b00 <warn@@Base+0x350c9>
    98d4:	ff 15 9e 03 05 00    	call   *0x5039e(%rip)        # 59c78 <warn@@Base+0x4d241>
    98da:	48 89 c7             	mov    %rax,%rdi
    98dd:	31 c0                	xor    %eax,%eax
    98df:	67 e8 52 31 00 00    	addr32 call ca37 <warn@@Base>
    98e5:	e9 ed 4d 02 00       	jmp    2e6d7 <warn@@Base+0x21ca0>
    98ea:	41 80 7d 00 2f       	cmpb   $0x2f,0x0(%r13)
    98ef:	74 6d                	je     995e <error@@Base+0x1356>
    98f1:	31 c9                	xor    %ecx,%ecx
    98f3:	4c 89 ea             	mov    %r13,%rdx
    98f6:	48 8d 35 0d 52 04 00 	lea    0x4520d(%rip),%rsi        # 4eb0a <warn@@Base+0x420d3>
    98fd:	4c 89 ff             	mov    %r15,%rdi
    9900:	31 c0                	xor    %eax,%eax
    9902:	ff 15 98 03 05 00    	call   *0x50398(%rip)        # 59ca0 <warn@@Base+0x4d269>
    9908:	49 89 c4             	mov    %rax,%r12
    990b:	4c 89 e7             	mov    %r12,%rdi
    990e:	e8 4d 1f 03 00       	call   3b860 <warn@@Base+0x2ee29>
    9913:	ba 05 00 00 00       	mov    $0x5,%edx
    9918:	49 89 c7             	mov    %rax,%r15
    991b:	48 85 c0             	test   %rax,%rax
    991e:	74 79                	je     9999 <error@@Base+0x1391>
    9920:	48 8d 35 99 82 03 00 	lea    0x38299(%rip),%rsi        # 41bc0 <warn@@Base+0x35189>
    9927:	31 ff                	xor    %edi,%edi
    9929:	45 31 ed             	xor    %r13d,%r13d
    992c:	ff 15 46 03 05 00    	call   *0x50346(%rip)        # 59c78 <warn@@Base+0x4d241>
    9932:	4c 89 e1             	mov    %r12,%rcx
    9935:	48 89 ea             	mov    %rbp,%rdx
    9938:	bf 01 00 00 00       	mov    $0x1,%edi
    993d:	48 89 c6             	mov    %rax,%rsi
    9940:	31 c0                	xor    %eax,%eax
    9942:	ff 15 c0 01 05 00    	call   *0x501c0(%rip)        # 59b08 <warn@@Base+0x4d0d1>
    9948:	4c 89 fe             	mov    %r15,%rsi
    994b:	4c 89 e7             	mov    %r12,%rdi
    994e:	45 31 ff             	xor    %r15d,%r15d
    9951:	e8 da 21 03 00       	call   3bb30 <warn@@Base+0x2f0f9>
    9956:	45 31 e4             	xor    %r12d,%r12d
    9959:	e9 59 4d 02 00       	jmp    2e6b7 <warn@@Base+0x21c80>
    995e:	4c 89 ef             	mov    %r13,%rdi
    9961:	ff 15 39 06 05 00    	call   *0x50639(%rip)        # 59fa0 <warn@@Base+0x4d569>
    9967:	49 89 c4             	mov    %rax,%r12
    996a:	48 85 c0             	test   %rax,%rax
    996d:	75 9c                	jne    990b <error@@Base+0x1303>
    996f:	ba 05 00 00 00       	mov    $0x5,%edx
    9974:	31 ff                	xor    %edi,%edi
    9976:	45 31 ed             	xor    %r13d,%r13d
    9979:	45 31 ff             	xor    %r15d,%r15d
    997c:	48 8d 35 15 82 03 00 	lea    0x38215(%rip),%rsi        # 41b98 <warn@@Base+0x35161>
    9983:	ff 15 ef 02 05 00    	call   *0x502ef(%rip)        # 59c78 <warn@@Base+0x4d241>
    9989:	48 89 c7             	mov    %rax,%rdi
    998c:	31 c0                	xor    %eax,%eax
    998e:	67 e8 a3 30 00 00    	addr32 call ca37 <warn@@Base>
    9994:	e9 1e 4d 02 00       	jmp    2e6b7 <warn@@Base+0x21c80>
    9999:	48 8d 35 41 69 03 00 	lea    0x36941(%rip),%rsi        # 402e1 <warn@@Base+0x338aa>
    99a0:	31 ff                	xor    %edi,%edi
    99a2:	45 31 ed             	xor    %r13d,%r13d
    99a5:	ff 15 cd 02 05 00    	call   *0x502cd(%rip)        # 59c78 <warn@@Base+0x4d241>
    99ab:	4c 89 e6             	mov    %r12,%rsi
    99ae:	48 89 c7             	mov    %rax,%rdi
    99b1:	31 c0                	xor    %eax,%eax
    99b3:	67 e8 7e 30 00 00    	addr32 call ca37 <warn@@Base>
    99b9:	4c 89 e7             	mov    %r12,%rdi
    99bc:	45 31 e4             	xor    %r12d,%r12d
    99bf:	ff 15 b3 03 05 00    	call   *0x503b3(%rip)        # 59d78 <warn@@Base+0x4d341>
    99c5:	e9 ed 4c 02 00       	jmp    2e6b7 <warn@@Base+0x21c80>
    99ca:	48 8d 0d ed 69 03 00 	lea    0x369ed(%rip),%rcx        # 403be <warn@@Base+0x33987>
    99d1:	48 8d 35 bc bf 03 00 	lea    0x3bfbc(%rip),%rsi        # 45994 <warn@@Base+0x38f5d>
    99d8:	bf 01 00 00 00       	mov    $0x1,%edi
    99dd:	31 c0                	xor    %eax,%eax
    99df:	ff 15 23 01 05 00    	call   *0x50123(%rip)        # 59b08 <warn@@Base+0x4d0d1>
    99e5:	e9 9d 50 02 00       	jmp    2ea87 <warn@@Base+0x22050>
    99ea:	48 8d 0d c5 69 03 00 	lea    0x369c5(%rip),%rcx        # 403b6 <warn@@Base+0x3397f>
    99f1:	48 8d 35 9c bf 03 00 	lea    0x3bf9c(%rip),%rsi        # 45994 <warn@@Base+0x38f5d>
    99f8:	bf 01 00 00 00       	mov    $0x1,%edi
    99fd:	31 c0                	xor    %eax,%eax
    99ff:	ff 15 03 01 05 00    	call   *0x50103(%rip)        # 59b08 <warn@@Base+0x4d0d1>
    9a05:	41 8b 47 44          	mov    0x44(%r15),%eax
    9a09:	48 8d 15 4a 69 03 00 	lea    0x3694a(%rip),%rdx        # 4035a <warn@@Base+0x33923>
    9a10:	e9 69 50 02 00       	jmp    2ea7e <warn@@Base+0x22047>
    9a15:	48 8d 0d 92 69 03 00 	lea    0x36992(%rip),%rcx        # 403ae <warn@@Base+0x33977>
    9a1c:	48 8d 35 71 bf 03 00 	lea    0x3bf71(%rip),%rsi        # 45994 <warn@@Base+0x38f5d>
    9a23:	bf 01 00 00 00       	mov    $0x1,%edi
    9a28:	31 c0                	xor    %eax,%eax
    9a2a:	ff 15 d8 00 05 00    	call   *0x500d8(%rip)        # 59b08 <warn@@Base+0x4d0d1>
    9a30:	41 8b 47 44          	mov    0x44(%r15),%eax
    9a34:	48 8d 15 1f 69 03 00 	lea    0x3691f(%rip),%rdx        # 4035a <warn@@Base+0x33923>
    9a3b:	e9 35 50 02 00       	jmp    2ea75 <warn@@Base+0x2203e>
    9a40:	48 8d 0d 5f 69 03 00 	lea    0x3695f(%rip),%rcx        # 403a6 <warn@@Base+0x3396f>
    9a47:	48 8d 35 46 bf 03 00 	lea    0x3bf46(%rip),%rsi        # 45994 <warn@@Base+0x38f5d>
    9a4e:	bf 01 00 00 00       	mov    $0x1,%edi
    9a53:	31 c0                	xor    %eax,%eax
    9a55:	ff 15 ad 00 05 00    	call   *0x500ad(%rip)        # 59b08 <warn@@Base+0x4d0d1>
    9a5b:	41 8b 47 44          	mov    0x44(%r15),%eax
    9a5f:	48 8d 15 f4 68 03 00 	lea    0x368f4(%rip),%rdx        # 4035a <warn@@Base+0x33923>
    9a66:	e9 02 50 02 00       	jmp    2ea6d <warn@@Base+0x22036>
    9a6b:	49 8b 3f             	mov    (%r15),%rdi
    9a6e:	e8 bd 23 03 00       	call   3be30 <warn@@Base+0x2f3f9>
    9a73:	83 3d 32 44 05 00 00 	cmpl   $0x0,0x54432(%rip)        # 5deac <warn@@Base+0x51475>
    9a7a:	0f 85 67 4c 02 00    	jne    2e6e7 <warn@@Base+0x21cb0>
    9a80:	e9 f4 43 02 00       	jmp    2de79 <warn@@Base+0x21442>
    9a85:	0f bf b4 24 fa 00 00 	movswl 0xfa(%rsp),%esi
    9a8c:	00 
    9a8d:	0f b6 bc 24 f8 00 00 	movzbl 0xf8(%rsp),%edi
    9a94:	00 
    9a95:	4c 89 f1             	mov    %r14,%rcx
    9a98:	48 8b 94 24 e0 00 00 	mov    0xe0(%rsp),%rdx
    9a9f:	00 
    9aa0:	e8 96 81 01 00       	call   21c3b <warn@@Base+0x15204>
    9aa5:	4d 89 f1             	mov    %r14,%r9
    9aa8:	48 89 ee             	mov    %rbp,%rsi
    9aab:	4c 89 ef             	mov    %r13,%rdi
    9aae:	0f bf 8c 24 fa 00 00 	movswl 0xfa(%rsp),%ecx
    9ab5:	00 
    9ab6:	0f b6 94 24 f8 00 00 	movzbl 0xf8(%rsp),%edx
    9abd:	00 
    9abe:	4c 8b 84 24 e0 00 00 	mov    0xe0(%rsp),%r8
    9ac5:	00 
    9ac6:	e8 61 ed 01 00       	call   2882c <warn@@Base+0x1bdf5>
    9acb:	88 84 24 84 00 00 00 	mov    %al,0x84(%rsp)
    9ad2:	84 c0                	test   %al,%al
    9ad4:	0f 85 29 f4 ff ff    	jne    8f03 <error@@Base+0x8fb>
    9ada:	44 8b 34 24          	mov    (%rsp),%r14d
    9ade:	e8 e3 81 01 00       	call   21cc6 <warn@@Base+0x1528f>
    9ae3:	e8 42 83 01 00       	call   21e2a <warn@@Base+0x153f3>
    9ae8:	e9 e0 f2 ff ff       	jmp    8dcd <error@@Base+0x7c5>
    9aed:	45 31 c9             	xor    %r9d,%r9d
    9af0:	e9 d9 60 02 00       	jmp    2fbce <warn@@Base+0x23197>
    9af5:	b8 10 00 00 00       	mov    $0x10,%eax
    9afa:	31 d2                	xor    %edx,%edx
    9afc:	f7 74 24 30          	divl   0x30(%rsp)
    9b00:	41 89 c4             	mov    %eax,%r12d
    9b03:	4c 01 24 24          	add    %r12,(%rsp)
    9b07:	48 8b 0c 24          	mov    (%rsp),%rcx
    9b0b:	48 39 4c 24 18       	cmp    %rcx,0x18(%rsp)
    9b10:	0f 87 da 59 02 00    	ja     2f4f0 <warn@@Base+0x22ab9>
    9b16:	e9 da 5d 02 00       	jmp    2f8f5 <warn@@Base+0x22ebe>
    9b1b:	48 8b 15 06 00 05 00 	mov    0x50006(%rip),%rdx        # 59b28 <warn@@Base+0x4d0f1>
    9b22:	bf 30 00 00 00       	mov    $0x30,%edi
    9b27:	83 c3 01             	add    $0x1,%ebx
    9b2a:	48 8b 32             	mov    (%rdx),%rsi
    9b2d:	ff 15 a5 04 05 00    	call   *0x504a5(%rip)        # 59fd8 <warn@@Base+0x4d5a1>
    9b33:	39 5c 24 34          	cmp    %ebx,0x34(%rsp)
    9b37:	75 e2                	jne    9b1b <error@@Base+0x1513>
    9b39:	4c 8b 05 e8 ff 04 00 	mov    0x4ffe8(%rip),%r8        # 59b28 <warn@@Base+0x4d0f1>
    9b40:	48 8b 7c 24 20       	mov    0x20(%rsp),%rdi
    9b45:	49 8b 30             	mov    (%r8),%rsi
    9b48:	ff 15 ea 01 05 00    	call   *0x501ea(%rip)        # 59d38 <warn@@Base+0x4d301>
    9b4e:	4c 8b 15 d3 ff 04 00 	mov    0x4ffd3(%rip),%r10        # 59b28 <warn@@Base+0x4d0f1>
    9b55:	bf 20 00 00 00       	mov    $0x20,%edi
    9b5a:	49 8b 32             	mov    (%r10),%rsi
    9b5d:	ff 15 75 04 05 00    	call   *0x50475(%rip)        # 59fd8 <warn@@Base+0x4d5a1>
    9b63:	48 8b 1c 24          	mov    (%rsp),%rbx
    9b67:	48 0f af 5c 24 28    	imul   0x28(%rsp),%rbx
    9b6d:	48 83 fb ef          	cmp    $0xffffffffffffffef,%rbx
    9b71:	0f 87 02 5f 02 00    	ja     2fa79 <warn@@Base+0x23042>
    9b77:	e9 0a 5a 02 00       	jmp    2f586 <warn@@Base+0x22b4f>
    9b7c:	4c 8b 6c 24 08       	mov    0x8(%rsp),%r13
    9b81:	4c 8b 34 24          	mov    (%rsp),%r14
    9b85:	31 ff                	xor    %edi,%edi
    9b87:	ba 05 00 00 00       	mov    $0x5,%edx
    9b8c:	48 8d 35 7d 82 03 00 	lea    0x3827d(%rip),%rsi        # 41e10 <warn@@Base+0x353d9>
    9b93:	4d 03 b5 98 00 00 00 	add    0x98(%r13),%r14
    9b9a:	ff 15 d8 00 05 00    	call   *0x500d8(%rip)        # 59c78 <warn@@Base+0x4d241>
    9ba0:	4c 89 f2             	mov    %r14,%rdx
    9ba3:	bf 01 00 00 00       	mov    $0x1,%edi
    9ba8:	48 89 c6             	mov    %rax,%rsi
    9bab:	31 c0                	xor    %eax,%eax
    9bad:	ff 15 55 ff 04 00    	call   *0x4ff55(%rip)        # 59b08 <warn@@Base+0x4d0d1>
    9bb3:	e9 d9 55 02 00       	jmp    2f191 <warn@@Base+0x2275a>
    9bb8:	ff 15 22 02 05 00    	call   *0x50222(%rip)        # 59de0 <warn@@Base+0x4d3a9>
    9bbe:	89 c7                	mov    %eax,%edi
    9bc0:	ff 15 02 03 05 00    	call   *0x50302(%rip)        # 59ec8 <warn@@Base+0x4d491>
    9bc6:	48 8b 6c 24 08       	mov    0x8(%rsp),%rbp
    9bcb:	31 ff                	xor    %edi,%edi
    9bcd:	ba 05 00 00 00       	mov    $0x5,%edx
    9bd2:	49 89 c5             	mov    %rax,%r13
    9bd5:	48 8d 35 5c 82 03 00 	lea    0x3825c(%rip),%rsi        # 41e38 <warn@@Base+0x35401>
    9bdc:	4c 8b 7d 00          	mov    0x0(%rbp),%r15
    9be0:	ff 15 92 00 05 00    	call   *0x50092(%rip)        # 59c78 <warn@@Base+0x4d241>
    9be6:	4c 89 ea             	mov    %r13,%rdx
    9be9:	48 89 c7             	mov    %rax,%rdi
    9bec:	4c 89 fe             	mov    %r15,%rsi
    9bef:	31 c0                	xor    %eax,%eax
    9bf1:	e8 fa 0b 03 00       	call   3a7f0 <warn@@Base+0x2ddb9>
    9bf6:	e9 c9 54 02 00       	jmp    2f0c4 <warn@@Base+0x2268d>
    9bfb:	48 69 da c0 00 00 00 	imul   $0xc0,%rdx,%rbx
    9c02:	e9 fa 0d 03 00       	jmp    3aa01 <warn@@Base+0x2dfca>
    9c07:	49 8b 3c 24          	mov    (%r12),%rdi
    9c0b:	e8 e0 22 03 00       	call   3bef0 <warn@@Base+0x2f4b9>
    9c10:	41 c7 44 24 08 01 00 	movl   $0x1,0x8(%r12)
    9c17:	00 00 
    9c19:	e9 c4 0d 03 00       	jmp    3a9e2 <warn@@Base+0x2dfab>
    9c1e:	49 8b 3e             	mov    (%r14),%rdi
    9c21:	e8 ca 22 03 00       	call   3bef0 <warn@@Base+0x2f4b9>
    9c26:	41 c7 44 24 08 01 00 	movl   $0x1,0x8(%r12)
    9c2d:	00 00 
    9c2f:	e9 a5 0d 03 00       	jmp    3a9d9 <warn@@Base+0x2dfa2>
    9c34:	4c 89 ea             	mov    %r13,%rdx
    9c37:	48 8d 0d 1b 6a 03 00 	lea    0x36a1b(%rip),%rcx        # 40659 <warn@@Base+0x33c22>
    9c3e:	48 8d 35 4f bd 03 00 	lea    0x3bd4f(%rip),%rsi        # 45994 <warn@@Base+0x38f5d>
    9c45:	31 c0                	xor    %eax,%eax
    9c47:	bf 01 00 00 00       	mov    $0x1,%edi
    9c4c:	4c 8d 2d 07 67 03 00 	lea    0x36707(%rip),%r13        # 4035a <warn@@Base+0x33923>
    9c53:	ff 15 af fe 04 00    	call   *0x4feaf(%rip)        # 59b08 <warn@@Base+0x4d0d1>
    9c59:	8b 43 28             	mov    0x28(%rbx),%eax
    9c5c:	e9 56 10 03 00       	jmp    3acb7 <warn@@Base+0x2e280>
    9c61:	4c 89 ea             	mov    %r13,%rdx
    9c64:	48 8d 0d a2 69 03 00 	lea    0x369a2(%rip),%rcx        # 4060d <warn@@Base+0x33bd6>
    9c6b:	48 8d 35 22 bd 03 00 	lea    0x3bd22(%rip),%rsi        # 45994 <warn@@Base+0x38f5d>
    9c72:	31 c0                	xor    %eax,%eax
    9c74:	bf 01 00 00 00       	mov    $0x1,%edi
    9c79:	4c 8d 2d da 66 03 00 	lea    0x366da(%rip),%r13        # 4035a <warn@@Base+0x33923>
    9c80:	ff 15 82 fe 04 00    	call   *0x4fe82(%rip)        # 59b08 <warn@@Base+0x4d0d1>
    9c86:	8b 43 28             	mov    0x28(%rbx),%eax
    9c89:	e9 c8 0f 03 00       	jmp    3ac56 <warn@@Base+0x2e21f>
    9c8e:	a9 00 00 00 08       	test   $0x8000000,%eax
    9c93:	0f 85 a4 00 00 00    	jne    9d3d <error@@Base+0x1735>
    9c99:	a9 00 00 00 40       	test   $0x40000000,%eax
    9c9e:	0f 84 13 10 03 00    	je     3acb7 <warn@@Base+0x2e280>
    9ca4:	4c 89 ea             	mov    %r13,%rdx
    9ca7:	48 8d 0d 9d 69 03 00 	lea    0x3699d(%rip),%rcx        # 4064b <warn@@Base+0x33c14>
    9cae:	48 8d 35 df bc 03 00 	lea    0x3bcdf(%rip),%rsi        # 45994 <warn@@Base+0x38f5d>
    9cb5:	31 c0                	xor    %eax,%eax
    9cb7:	bf 01 00 00 00       	mov    $0x1,%edi
    9cbc:	4c 8d 2d 97 66 03 00 	lea    0x36697(%rip),%r13        # 4035a <warn@@Base+0x33923>
    9cc3:	ff 15 3f fe 04 00    	call   *0x4fe3f(%rip)        # 59b08 <warn@@Base+0x4d0d1>
    9cc9:	8b 43 28             	mov    0x28(%rbx),%eax
    9ccc:	e9 e6 0f 03 00       	jmp    3acb7 <warn@@Base+0x2e280>
    9cd1:	4c 89 ea             	mov    %r13,%rdx
    9cd4:	48 8d 0d 5e 69 03 00 	lea    0x3695e(%rip),%rcx        # 40639 <warn@@Base+0x33c02>
    9cdb:	48 8d 35 b2 bc 03 00 	lea    0x3bcb2(%rip),%rsi        # 45994 <warn@@Base+0x38f5d>
    9ce2:	31 c0                	xor    %eax,%eax
    9ce4:	bf 01 00 00 00       	mov    $0x1,%edi
    9ce9:	4c 8d 2d 6a 66 03 00 	lea    0x3666a(%rip),%r13        # 4035a <warn@@Base+0x33923>
    9cf0:	ff 15 12 fe 04 00    	call   *0x4fe12(%rip)        # 59b08 <warn@@Base+0x4d0d1>
    9cf6:	8b 43 28             	mov    0x28(%rbx),%eax
    9cf9:	e9 8c 0f 03 00       	jmp    3ac8a <warn@@Base+0x2e253>
    9cfe:	a9 00 00 00 10       	test   $0x10000000,%eax
    9d03:	75 65                	jne    9d6a <error@@Base+0x1762>
    9d05:	a9 00 00 00 20       	test   $0x20000000,%eax
    9d0a:	0f 84 6f 0f 03 00    	je     3ac7f <warn@@Base+0x2e248>
    9d10:	4c 89 ea             	mov    %r13,%rdx
    9d13:	48 8d 0d 19 69 03 00 	lea    0x36919(%rip),%rcx        # 40633 <warn@@Base+0x33bfc>
    9d1a:	48 8d 35 73 bc 03 00 	lea    0x3bc73(%rip),%rsi        # 45994 <warn@@Base+0x38f5d>
    9d21:	31 c0                	xor    %eax,%eax
    9d23:	bf 01 00 00 00       	mov    $0x1,%edi
    9d28:	4c 8d 2d 2b 66 03 00 	lea    0x3662b(%rip),%r13        # 4035a <warn@@Base+0x33923>
    9d2f:	ff 15 d3 fd 04 00    	call   *0x4fdd3(%rip)        # 59b08 <warn@@Base+0x4d0d1>
    9d35:	8b 43 28             	mov    0x28(%rbx),%eax
    9d38:	e9 42 0f 03 00       	jmp    3ac7f <warn@@Base+0x2e248>
    9d3d:	4c 89 ea             	mov    %r13,%rdx
    9d40:	48 8d 0d fd 68 03 00 	lea    0x368fd(%rip),%rcx        # 40644 <warn@@Base+0x33c0d>
    9d47:	48 8d 35 46 bc 03 00 	lea    0x3bc46(%rip),%rsi        # 45994 <warn@@Base+0x38f5d>
    9d4e:	31 c0                	xor    %eax,%eax
    9d50:	bf 01 00 00 00       	mov    $0x1,%edi
    9d55:	4c 8d 2d fe 65 03 00 	lea    0x365fe(%rip),%r13        # 4035a <warn@@Base+0x33923>
    9d5c:	ff 15 a6 fd 04 00    	call   *0x4fda6(%rip)        # 59b08 <warn@@Base+0x4d0d1>
    9d62:	8b 43 28             	mov    0x28(%rbx),%eax
    9d65:	e9 2f ff ff ff       	jmp    9c99 <error@@Base+0x1691>
    9d6a:	4c 89 ea             	mov    %r13,%rdx
    9d6d:	48 8d 0d b9 68 03 00 	lea    0x368b9(%rip),%rcx        # 4062d <warn@@Base+0x33bf6>
    9d74:	48 8d 35 19 bc 03 00 	lea    0x3bc19(%rip),%rsi        # 45994 <warn@@Base+0x38f5d>
    9d7b:	31 c0                	xor    %eax,%eax
    9d7d:	bf 01 00 00 00       	mov    $0x1,%edi
    9d82:	4c 8d 2d d1 65 03 00 	lea    0x365d1(%rip),%r13        # 4035a <warn@@Base+0x33923>
    9d89:	ff 15 79 fd 04 00    	call   *0x4fd79(%rip)        # 59b08 <warn@@Base+0x4d0d1>
    9d8f:	8b 43 28             	mov    0x28(%rbx),%eax
    9d92:	e9 6e ff ff ff       	jmp    9d05 <error@@Base+0x16fd>
    9d97:	4c 89 ea             	mov    %r13,%rdx
    9d9a:	48 8d 0d 5e 68 03 00 	lea    0x3685e(%rip),%rcx        # 405ff <warn@@Base+0x33bc8>
    9da1:	48 8d 35 ec bb 03 00 	lea    0x3bbec(%rip),%rsi        # 45994 <warn@@Base+0x38f5d>
    9da8:	31 c0                	xor    %eax,%eax
    9daa:	bf 01 00 00 00       	mov    $0x1,%edi
    9daf:	4c 8d 2d a4 65 03 00 	lea    0x365a4(%rip),%r13        # 4035a <warn@@Base+0x33923>
    9db6:	ff 15 4c fd 04 00    	call   *0x4fd4c(%rip)        # 59b08 <warn@@Base+0x4d0d1>
    9dbc:	8b 43 28             	mov    0x28(%rbx),%eax
    9dbf:	e9 80 0e 03 00       	jmp    3ac44 <warn@@Base+0x2e20d>
    9dc4:	4c 89 ea             	mov    %r13,%rdx
    9dc7:	48 8d 0d 4a 68 03 00 	lea    0x3684a(%rip),%rcx        # 40618 <warn@@Base+0x33be1>
    9dce:	48 8d 35 bf bb 03 00 	lea    0x3bbbf(%rip),%rsi        # 45994 <warn@@Base+0x38f5d>
    9dd5:	31 c0                	xor    %eax,%eax
    9dd7:	bf 01 00 00 00       	mov    $0x1,%edi
    9ddc:	4c 8d 2d 77 65 03 00 	lea    0x36577(%rip),%r13        # 4035a <warn@@Base+0x33923>
    9de3:	ff 15 1f fd 04 00    	call   *0x4fd1f(%rip)        # 59b08 <warn@@Base+0x4d0d1>
    9de9:	8b 43 28             	mov    0x28(%rbx),%eax
    9dec:	e9 6e 0e 03 00       	jmp    3ac5f <warn@@Base+0x2e228>
    9df1:	a9 00 00 00 20       	test   $0x20000000,%eax
    9df6:	0f 84 e4 0e 03 00    	je     3ace0 <warn@@Base+0x2e2a9>
    9dfc:	4c 89 ea             	mov    %r13,%rdx
    9dff:	48 8d 0d 6f 68 03 00 	lea    0x3686f(%rip),%rcx        # 40675 <warn@@Base+0x33c3e>
    9e06:	48 8d 35 87 bb 03 00 	lea    0x3bb87(%rip),%rsi        # 45994 <warn@@Base+0x38f5d>
    9e0d:	31 c0                	xor    %eax,%eax
    9e0f:	bf 01 00 00 00       	mov    $0x1,%edi
    9e14:	4c 8d 2d 3f 65 03 00 	lea    0x3653f(%rip),%r13        # 4035a <warn@@Base+0x33923>
    9e1b:	ff 15 e7 fc 04 00    	call   *0x4fce7(%rip)        # 59b08 <warn@@Base+0x4d0d1>
    9e21:	8b 43 28             	mov    0x28(%rbx),%eax
    9e24:	e9 b7 0e 03 00       	jmp    3ace0 <warn@@Base+0x2e2a9>
    9e29:	4c 89 ea             	mov    %r13,%rdx
    9e2c:	48 8d 0d 3c 68 03 00 	lea    0x3683c(%rip),%rcx        # 4066f <warn@@Base+0x33c38>
    9e33:	48 8d 35 5a bb 03 00 	lea    0x3bb5a(%rip),%rsi        # 45994 <warn@@Base+0x38f5d>
    9e3a:	31 c0                	xor    %eax,%eax
    9e3c:	bf 01 00 00 00       	mov    $0x1,%edi
    9e41:	4c 8d 2d 12 65 03 00 	lea    0x36512(%rip),%r13        # 4035a <warn@@Base+0x33923>
    9e48:	ff 15 ba fc 04 00    	call   *0x4fcba(%rip)        # 59b08 <warn@@Base+0x4d0d1>
    9e4e:	e9 78 0e 03 00       	jmp    3accb <warn@@Base+0x2e294>
    9e53:	4c 89 ea             	mov    %r13,%rdx
    9e56:	48 8d 0d c3 67 03 00 	lea    0x367c3(%rip),%rcx        # 40620 <warn@@Base+0x33be9>
    9e5d:	48 8d 35 30 bb 03 00 	lea    0x3bb30(%rip),%rsi        # 45994 <warn@@Base+0x38f5d>
    9e64:	31 c0                	xor    %eax,%eax
    9e66:	bf 01 00 00 00       	mov    $0x1,%edi
    9e6b:	4c 8d 2d e8 64 03 00 	lea    0x364e8(%rip),%r13        # 4035a <warn@@Base+0x33923>
    9e72:	ff 15 90 fc 04 00    	call   *0x4fc90(%rip)        # 59b08 <warn@@Base+0x4d0d1>
    9e78:	e9 ed 0d 03 00       	jmp    3ac6a <warn@@Base+0x2e233>
    9e7d:	4c 89 ea             	mov    %r13,%rdx
    9e80:	48 8d 0d 63 67 03 00 	lea    0x36763(%rip),%rcx        # 405ea <warn@@Base+0x33bb3>
    9e87:	48 8d 35 06 bb 03 00 	lea    0x3bb06(%rip),%rsi        # 45994 <warn@@Base+0x38f5d>
    9e8e:	31 c0                	xor    %eax,%eax
    9e90:	bf 01 00 00 00       	mov    $0x1,%edi
    9e95:	4c 8d 2d be 64 03 00 	lea    0x364be(%rip),%r13        # 4035a <warn@@Base+0x33923>
    9e9c:	ff 15 66 fc 04 00    	call   *0x4fc66(%rip)        # 59b08 <warn@@Base+0x4d0d1>
    9ea2:	8b 43 28             	mov    0x28(%rbx),%eax
    9ea5:	e9 fe 0c 03 00       	jmp    3aba8 <warn@@Base+0x2e171>
    9eaa:	58                   	pop    %rax
    9eab:	5b                   	pop    %rbx
    9eac:	5d                   	pop    %rbp
    9ead:	41 5c                	pop    %r12
    9eaf:	41 5d                	pop    %r13
    9eb1:	c3                   	ret    
    9eb2:	25 00 00 0c 00       	and    $0xc0000,%eax
    9eb7:	3d 00 00 08 00       	cmp    $0x80000,%eax
    9ebc:	74 7f                	je     9f3d <error@@Base+0x1935>
    9ebe:	0f 87 82 00 00 00    	ja     9f46 <error@@Base+0x193e>
    9ec4:	85 c0                	test   %eax,%eax
    9ec6:	0f 84 8e 00 00 00    	je     9f5a <error@@Base+0x1952>
    9ecc:	48 8d 0d a0 66 03 00 	lea    0x366a0(%rip),%rcx        # 40573 <warn@@Base+0x33b3c>
    9ed3:	3d 00 00 04 00       	cmp    $0x40000,%eax
    9ed8:	75 7a                	jne    9f54 <error@@Base+0x194c>
    9eda:	31 c0                	xor    %eax,%eax
    9edc:	4c 89 ea             	mov    %r13,%rdx
    9edf:	bf 01 00 00 00       	mov    $0x1,%edi
    9ee4:	48 8d 35 a9 ba 03 00 	lea    0x3baa9(%rip),%rsi        # 45994 <warn@@Base+0x38f5d>
    9eeb:	ff 15 17 fc 04 00    	call   *0x4fc17(%rip)        # 59b08 <warn@@Base+0x4d0d1>
    9ef1:	4c 8b 45 08          	mov    0x8(%rbp),%r8
    9ef5:	41 83 78 08 02       	cmpl   $0x2,0x8(%r8)
    9efa:	0f 85 eb 0d 03 00    	jne    3aceb <warn@@Base+0x2e2b4>
    9f00:	4c 8b 8b e8 00 00 00 	mov    0xe8(%rbx),%r9
    9f07:	4d 85 c9             	test   %r9,%r9
    9f0a:	0f 84 db 0d 03 00    	je     3aceb <warn@@Base+0x2e2b4>
    9f10:	4d 8b 51 40          	mov    0x40(%r9),%r10
    9f14:	4d 85 d2             	test   %r10,%r10
    9f17:	0f 84 ce 0d 03 00    	je     3aceb <warn@@Base+0x2e2b4>
    9f1d:	49 8b 4a 08          	mov    0x8(%r10),%rcx
    9f21:	49 8b 12             	mov    (%r10),%rdx
    9f24:	48 8d 35 4f 67 03 00 	lea    0x3674f(%rip),%rsi        # 4067a <warn@@Base+0x33c43>
    9f2b:	31 c0                	xor    %eax,%eax
    9f2d:	bf 01 00 00 00       	mov    $0x1,%edi
    9f32:	ff 15 d0 fb 04 00    	call   *0x4fbd0(%rip)        # 59b08 <warn@@Base+0x4d0d1>
    9f38:	e9 ae 0d 03 00       	jmp    3aceb <warn@@Base+0x2e2b4>
    9f3d:	48 8d 0d 42 66 03 00 	lea    0x36642(%rip),%rcx        # 40586 <warn@@Base+0x33b4f>
    9f44:	eb 94                	jmp    9eda <error@@Base+0x18d2>
    9f46:	48 8d 0d 4d 66 03 00 	lea    0x3664d(%rip),%rcx        # 4059a <warn@@Base+0x33b63>
    9f4d:	3d 00 00 0c 00       	cmp    $0xc0000,%eax
    9f52:	74 86                	je     9eda <error@@Base+0x18d2>
    9f54:	ff 15 be fc 04 00    	call   *0x4fcbe(%rip)        # 59c18 <warn@@Base+0x4d1e1>
    9f5a:	48 8d 0d 00 66 03 00 	lea    0x36600(%rip),%rcx        # 40561 <warn@@Base+0x33b2a>
    9f61:	e9 74 ff ff ff       	jmp    9eda <error@@Base+0x18d2>
    9f66:	44 89 ef             	mov    %r13d,%edi
    9f69:	e8 42 10 03 00       	call   3afb0 <warn@@Base+0x2e579>
    9f6e:	49 6b f7 70          	imul   $0x70,%r15,%rsi
    9f72:	49 8b 7c 36 18       	mov    0x18(%r14,%rsi,1),%rdi
    9f77:	e8 14 39 02 00       	call   2d890 <warn@@Base+0x20e59>
    9f7c:	ba 05 00 00 00       	mov    $0x5,%edx
    9f81:	48 8d 35 08 7f 03 00 	lea    0x37f08(%rip),%rsi        # 41e90 <warn@@Base+0x35459>
    9f88:	31 ff                	xor    %edi,%edi
    9f8a:	49 89 c7             	mov    %rax,%r15
    9f8d:	ff 15 e5 fc 04 00    	call   *0x4fce5(%rip)        # 59c78 <warn@@Base+0x4d241>
    9f93:	4c 89 fa             	mov    %r15,%rdx
    9f96:	bf 01 00 00 00       	mov    $0x1,%edi
    9f9b:	48 89 c6             	mov    %rax,%rsi
    9f9e:	31 c0                	xor    %eax,%eax
    9fa0:	ff 15 62 fb 04 00    	call   *0x4fb62(%rip)        # 59b08 <warn@@Base+0x4d0d1>
    9fa6:	31 c0                	xor    %eax,%eax
    9fa8:	e9 f4 0e 03 00       	jmp    3aea1 <warn@@Base+0x2e46a>
    9fad:	4c 89 ef             	mov    %r13,%rdi
    9fb0:	ff 15 c2 fd 04 00    	call   *0x4fdc2(%rip)        # 59d78 <warn@@Base+0x4d341>
    9fb6:	e9 e1 0e 03 00       	jmp    3ae9c <warn@@Base+0x2e465>
    9fbb:	48 c7 43 28 00 00 00 	movq   $0x0,0x28(%rbx)
    9fc2:	00 
    9fc3:	44 89 ef             	mov    %r13d,%edi
    9fc6:	e8 e5 0f 03 00       	call   3afb0 <warn@@Base+0x2e579>
    9fcb:	48 8b 7b 18          	mov    0x18(%rbx),%rdi
    9fcf:	48 8b 6b 38          	mov    0x38(%rbx),%rbp
    9fd3:	e8 b8 38 02 00       	call   2d890 <warn@@Base+0x20e59>
    9fd8:	ba 05 00 00 00       	mov    $0x5,%edx
    9fdd:	48 8d 35 7c 7e 03 00 	lea    0x37e7c(%rip),%rsi        # 41e60 <warn@@Base+0x35429>
    9fe4:	31 ff                	xor    %edi,%edi
    9fe6:	49 89 c4             	mov    %rax,%r12
    9fe9:	ff 15 89 fc 04 00    	call   *0x4fc89(%rip)        # 59c78 <warn@@Base+0x4d241>
    9fef:	48 89 e9             	mov    %rbp,%rcx
    9ff2:	4c 89 e2             	mov    %r12,%rdx
    9ff5:	bf 01 00 00 00       	mov    $0x1,%edi
    9ffa:	48 89 c6             	mov    %rax,%rsi
    9ffd:	31 c0                	xor    %eax,%eax
    9fff:	ff 15 03 fb 04 00    	call   *0x4fb03(%rip)        # 59b08 <warn@@Base+0x4d0d1>
    a005:	31 c0                	xor    %eax,%eax
    a007:	e9 95 0e 03 00       	jmp    3aea1 <warn@@Base+0x2e46a>
    a00c:	31 ff                	xor    %edi,%edi
    a00e:	ba 05 00 00 00       	mov    $0x5,%edx
    a013:	48 8d 35 3e 80 03 00 	lea    0x3803e(%rip),%rsi        # 42058 <warn@@Base+0x35621>
    a01a:	ff 15 58 fc 04 00    	call   *0x4fc58(%rip)        # 59c78 <warn@@Base+0x4d241>
    a020:	48 89 c7             	mov    %rax,%rdi
    a023:	48 8b 44 24 28       	mov    0x28(%rsp),%rax
    a028:	64 48 2b 04 25 28 00 	sub    %fs:0x28,%rax
    a02f:	00 00 
    a031:	0f 85 12 01 00 00    	jne    a149 <error@@Base+0x1b41>
    a037:	48 83 c4 38          	add    $0x38,%rsp
    a03b:	31 c0                	xor    %eax,%eax
    a03d:	5b                   	pop    %rbx
    a03e:	5d                   	pop    %rbp
    a03f:	41 5c                	pop    %r12
    a041:	41 5d                	pop    %r13
    a043:	41 5e                	pop    %r14
    a045:	41 5f                	pop    %r15
    a047:	e9 eb 29 00 00       	jmp    ca37 <warn@@Base>
    a04c:	90                   	nop
    a04d:	4c 8b 2d 74 12 05 00 	mov    0x51274(%rip),%r13        # 5b2c8 <warn@@Base+0x4e891>
    a054:	4d 85 ed             	test   %r13,%r13
    a057:	0f 84 f2 00 00 00    	je     a14f <error@@Base+0x1b47>
    a05d:	48 8b 1d 74 12 05 00 	mov    0x51274(%rip),%rbx        # 5b2d8 <warn@@Base+0x4e8a1>
    a064:	48 83 fb 04          	cmp    $0x4,%rbx
    a068:	0f 86 e1 00 00 00    	jbe    a14f <error@@Base+0x1b47>
    a06e:	41 80 7d 02 00       	cmpb   $0x0,0x2(%r13)
    a073:	0f 85 4a 5c 02 00    	jne    2fcc3 <warn@@Base+0x2328c>
    a079:	48 83 eb 03          	sub    $0x3,%rbx
    a07d:	4d 8d 75 03          	lea    0x3(%r13),%r14
    a081:	48 89 de             	mov    %rbx,%rsi
    a084:	4c 89 f7             	mov    %r14,%rdi
    a087:	ff 15 33 fe 04 00    	call   *0x4fe33(%rip)        # 59ec0 <warn@@Base+0x4d489>
    a08d:	48 39 c3             	cmp    %rax,%rbx
    a090:	0f 84 a3 01 00 00    	je     a239 <error@@Base+0x1c31>
    a096:	41 80 7d 03 2f       	cmpb   $0x2f,0x3(%r13)
    a09b:	0f 84 bc 01 00 00    	je     a25d <error@@Base+0x1c55>
    a0a1:	be 2f 00 00 00       	mov    $0x2f,%esi
    a0a6:	4c 89 e7             	mov    %r12,%rdi
    a0a9:	ff 15 f1 fa 04 00    	call   *0x4faf1(%rip)        # 59ba0 <warn@@Base+0x4d169>
    a0af:	48 85 c0             	test   %rax,%rax
    a0b2:	0f 84 a5 01 00 00    	je     a25d <error@@Base+0x1c55>
    a0b8:	be 2f 00 00 00       	mov    $0x2f,%esi
    a0bd:	4c 89 e7             	mov    %r12,%rdi
    a0c0:	ff 15 5a fc 04 00    	call   *0x4fc5a(%rip)        # 59d20 <warn@@Base+0x4d2e9>
    a0c6:	48 8d 7c 24 10       	lea    0x10(%rsp),%rdi
    a0cb:	4d 89 f1             	mov    %r14,%r9
    a0ce:	4d 89 e0             	mov    %r12,%r8
    a0d1:	89 c1                	mov    %eax,%ecx
    a0d3:	48 8d 15 b1 65 03 00 	lea    0x365b1(%rip),%rdx        # 4068b <warn@@Base+0x33c54>
    a0da:	be 01 00 00 00       	mov    $0x1,%esi
    a0df:	31 c0                	xor    %eax,%eax
    a0e1:	44 29 e1             	sub    %r12d,%ecx
    a0e4:	ff 15 ce fc 04 00    	call   *0x4fcce(%rip)        # 59db8 <warn@@Base+0x4d381>
    a0ea:	41 89 c5             	mov    %eax,%r13d
    a0ed:	83 f8 02             	cmp    $0x2,%eax
    a0f0:	0f 8e cb 01 00 00    	jle    a2c1 <error@@Base+0x1cb9>
    a0f6:	4c 8b 7c 24 10       	mov    0x10(%rsp),%r15
    a0fb:	4c 89 ff             	mov    %r15,%rdi
    a0fe:	e8 5d 17 03 00       	call   3b860 <warn@@Base+0x2ee29>
    a103:	ba 05 00 00 00       	mov    $0x5,%edx
    a108:	48 89 c3             	mov    %rax,%rbx
    a10b:	48 85 c0             	test   %rax,%rax
    a10e:	0f 84 82 01 00 00    	je     a296 <error@@Base+0x1c8e>
    a114:	31 ff                	xor    %edi,%edi
    a116:	48 8d 35 0b 7f 03 00 	lea    0x37f0b(%rip),%rsi        # 42028 <warn@@Base+0x355f1>
    a11d:	ff 15 55 fb 04 00    	call   *0x4fb55(%rip)        # 59c78 <warn@@Base+0x4d241>
    a123:	4c 89 f9             	mov    %r15,%rcx
    a126:	4c 89 e2             	mov    %r12,%rdx
    a129:	bf 01 00 00 00       	mov    $0x1,%edi
    a12e:	48 89 c6             	mov    %rax,%rsi
    a131:	31 c0                	xor    %eax,%eax
    a133:	ff 15 cf f9 04 00    	call   *0x4f9cf(%rip)        # 59b08 <warn@@Base+0x4d0d1>
    a139:	48 89 de             	mov    %rbx,%rsi
    a13c:	4c 89 ff             	mov    %r15,%rdi
    a13f:	e8 ec 19 03 00       	call   3bb30 <warn@@Base+0x2f0f9>
    a144:	e9 7a 5b 02 00       	jmp    2fcc3 <warn@@Base+0x2328c>
    a149:	ff 15 e1 fb 04 00    	call   *0x4fbe1(%rip)        # 59d30 <warn@@Base+0x4d2f9>
    a14f:	31 ff                	xor    %edi,%edi
    a151:	ba 05 00 00 00       	mov    $0x5,%edx
    a156:	48 8d 35 bb 7d 03 00 	lea    0x37dbb(%rip),%rsi        # 41f18 <warn@@Base+0x354e1>
    a15d:	ff 15 15 fb 04 00    	call   *0x4fb15(%rip)        # 59c78 <warn@@Base+0x4d241>
    a163:	48 89 c7             	mov    %rax,%rdi
    a166:	31 c0                	xor    %eax,%eax
    a168:	67 e8 c9 28 00 00    	addr32 call ca37 <warn@@Base>
    a16e:	e9 50 5b 02 00       	jmp    2fcc3 <warn@@Base+0x2328c>
    a173:	48 8d 0d a6 94 03 00 	lea    0x394a6(%rip),%rcx        # 43620 <warn@@Base+0x36be9>
    a17a:	ba f8 2c 00 00       	mov    $0x2cf8,%edx
    a17f:	48 8d 35 32 7d 03 00 	lea    0x37d32(%rip),%rsi        # 41eb8 <warn@@Base+0x35481>
    a186:	48 8d 3d 63 7d 03 00 	lea    0x37d63(%rip),%rdi        # 41ef0 <warn@@Base+0x354b9>
    a18d:	ff 15 dd fa 04 00    	call   *0x4fadd(%rip)        # 59c70 <warn@@Base+0x4d239>
    a193:	31 ff                	xor    %edi,%edi
    a195:	ba 05 00 00 00       	mov    $0x5,%edx
    a19a:	48 8d 35 17 7f 03 00 	lea    0x37f17(%rip),%rsi        # 420b8 <warn@@Base+0x35681>
    a1a1:	ff 15 d1 fa 04 00    	call   *0x4fad1(%rip)        # 59c78 <warn@@Base+0x4d241>
    a1a7:	48 89 c7             	mov    %rax,%rdi
    a1aa:	48 8b 44 24 28       	mov    0x28(%rsp),%rax
    a1af:	64 48 2b 04 25 28 00 	sub    %fs:0x28,%rax
    a1b6:	00 00 
    a1b8:	75 53                	jne    a20d <error@@Base+0x1c05>
    a1ba:	48 83 c4 38          	add    $0x38,%rsp
    a1be:	31 c0                	xor    %eax,%eax
    a1c0:	5b                   	pop    %rbx
    a1c1:	5d                   	pop    %rbp
    a1c2:	41 5c                	pop    %r12
    a1c4:	41 5d                	pop    %r13
    a1c6:	41 5e                	pop    %r14
    a1c8:	41 5f                	pop    %r15
    a1ca:	e9 68 28 00 00       	jmp    ca37 <warn@@Base>
    a1cf:	90                   	nop
    a1d0:	31 ff                	xor    %edi,%edi
    a1d2:	ba 05 00 00 00       	mov    $0x5,%edx
    a1d7:	48 8d 35 aa 7e 03 00 	lea    0x37eaa(%rip),%rsi        # 42088 <warn@@Base+0x35651>
    a1de:	ff 15 94 fa 04 00    	call   *0x4fa94(%rip)        # 59c78 <warn@@Base+0x4d241>
    a1e4:	48 89 c7             	mov    %rax,%rdi
    a1e7:	48 8b 44 24 28       	mov    0x28(%rsp),%rax
    a1ec:	64 48 2b 04 25 28 00 	sub    %fs:0x28,%rax
    a1f3:	00 00 
    a1f5:	75 3c                	jne    a233 <error@@Base+0x1c2b>
    a1f7:	48 83 c4 38          	add    $0x38,%rsp
    a1fb:	31 c0                	xor    %eax,%eax
    a1fd:	5b                   	pop    %rbx
    a1fe:	5d                   	pop    %rbp
    a1ff:	41 5c                	pop    %r12
    a201:	41 5d                	pop    %r13
    a203:	41 5e                	pop    %r14
    a205:	41 5f                	pop    %r15
    a207:	e9 2b 28 00 00       	jmp    ca37 <warn@@Base>
    a20c:	90                   	nop
    a20d:	ff 15 1d fb 04 00    	call   *0x4fb1d(%rip)        # 59d30 <warn@@Base+0x4d2f9>
    a213:	48 8d 0d 06 94 03 00 	lea    0x39406(%rip),%rcx        # 43620 <warn@@Base+0x36be9>
    a21a:	ba e6 2c 00 00       	mov    $0x2ce6,%edx
    a21f:	48 8d 35 92 7c 03 00 	lea    0x37c92(%rip),%rsi        # 41eb8 <warn@@Base+0x35481>
    a226:	48 8d 3d c3 7c 03 00 	lea    0x37cc3(%rip),%rdi        # 41ef0 <warn@@Base+0x354b9>
    a22d:	ff 15 3d fa 04 00    	call   *0x4fa3d(%rip)        # 59c70 <warn@@Base+0x4d239>
    a233:	ff 15 f7 fa 04 00    	call   *0x4faf7(%rip)        # 59d30 <warn@@Base+0x4d2f9>
    a239:	31 ff                	xor    %edi,%edi
    a23b:	ba 05 00 00 00       	mov    $0x5,%edx
    a240:	48 8d 35 f9 7c 03 00 	lea    0x37cf9(%rip),%rsi        # 41f40 <warn@@Base+0x35509>
    a247:	ff 15 2b fa 04 00    	call   *0x4fa2b(%rip)        # 59c78 <warn@@Base+0x4d241>
    a24d:	48 89 c7             	mov    %rax,%rdi
    a250:	31 c0                	xor    %eax,%eax
    a252:	67 e8 df 27 00 00    	addr32 call ca37 <warn@@Base>
    a258:	e9 66 5a 02 00       	jmp    2fcc3 <warn@@Base+0x2328c>
    a25d:	4c 89 f7             	mov    %r14,%rdi
    a260:	ff 15 3a fd 04 00    	call   *0x4fd3a(%rip)        # 59fa0 <warn@@Base+0x4d569>
    a266:	49 89 c7             	mov    %rax,%r15
    a269:	48 85 c0             	test   %rax,%rax
    a26c:	0f 85 89 fe ff ff    	jne    a0fb <error@@Base+0x1af3>
    a272:	31 ff                	xor    %edi,%edi
    a274:	ba 05 00 00 00       	mov    $0x5,%edx
    a279:	48 8d 35 28 7d 03 00 	lea    0x37d28(%rip),%rsi        # 41fa8 <warn@@Base+0x35571>
    a280:	ff 15 f2 f9 04 00    	call   *0x4f9f2(%rip)        # 59c78 <warn@@Base+0x4d241>
    a286:	48 89 c7             	mov    %rax,%rdi
    a289:	31 c0                	xor    %eax,%eax
    a28b:	67 e8 a6 27 00 00    	addr32 call ca37 <warn@@Base>
    a291:	e9 2d 5a 02 00       	jmp    2fcc3 <warn@@Base+0x2328c>
    a296:	31 ff                	xor    %edi,%edi
    a298:	48 8d 35 49 7d 03 00 	lea    0x37d49(%rip),%rsi        # 41fe8 <warn@@Base+0x355b1>
    a29f:	ff 15 d3 f9 04 00    	call   *0x4f9d3(%rip)        # 59c78 <warn@@Base+0x4d241>
    a2a5:	4c 89 fe             	mov    %r15,%rsi
    a2a8:	48 89 c7             	mov    %rax,%rdi
    a2ab:	31 c0                	xor    %eax,%eax
    a2ad:	67 e8 84 27 00 00    	addr32 call ca37 <warn@@Base>
    a2b3:	4c 89 ff             	mov    %r15,%rdi
    a2b6:	ff 15 bc fa 04 00    	call   *0x4fabc(%rip)        # 59d78 <warn@@Base+0x4d341>
    a2bc:	e9 02 5a 02 00       	jmp    2fcc3 <warn@@Base+0x2328c>
    a2c1:	31 ff                	xor    %edi,%edi
    a2c3:	ba 05 00 00 00       	mov    $0x5,%edx
    a2c8:	48 8d 35 a1 7c 03 00 	lea    0x37ca1(%rip),%rsi        # 41f70 <warn@@Base+0x35539>
    a2cf:	ff 15 a3 f9 04 00    	call   *0x4f9a3(%rip)        # 59c78 <warn@@Base+0x4d241>
    a2d5:	48 89 c7             	mov    %rax,%rdi
    a2d8:	31 c0                	xor    %eax,%eax
    a2da:	67 e8 57 27 00 00    	addr32 call ca37 <warn@@Base>
    a2e0:	45 85 ed             	test   %r13d,%r13d
    a2e3:	0f 88 da 59 02 00    	js     2fcc3 <warn@@Base+0x2328c>
    a2e9:	48 8b 7c 24 10       	mov    0x10(%rsp),%rdi
    a2ee:	ff 15 84 fa 04 00    	call   *0x4fa84(%rip)        # 59d78 <warn@@Base+0x4d341>
    a2f4:	e9 ca 59 02 00       	jmp    2fcc3 <warn@@Base+0x2328c>
    a2f9:	31 d2                	xor    %edx,%edx
    a2fb:	4c 89 f6             	mov    %r14,%rsi
    a2fe:	48 89 ef             	mov    %rbp,%rdi
    a301:	e8 da cf 02 00       	call   372e0 <warn@@Base+0x2a8a9>
    a306:	31 ff                	xor    %edi,%edi
    a308:	ba 05 00 00 00       	mov    $0x5,%edx
    a30d:	48 8d 35 17 65 03 00 	lea    0x36517(%rip),%rsi        # 4082b <warn@@Base+0x33df4>
    a314:	49 89 c6             	mov    %rax,%r14
    a317:	ff 15 5b f9 04 00    	call   *0x4f95b(%rip)        # 59c78 <warn@@Base+0x4d241>
    a31d:	4c 89 f2             	mov    %r14,%rdx
    a320:	bf 01 00 00 00       	mov    $0x1,%edi
    a325:	48 89 c6             	mov    %rax,%rsi
    a328:	31 c0                	xor    %eax,%eax
    a32a:	ff 15 d8 f7 04 00    	call   *0x4f7d8(%rip)        # 59b08 <warn@@Base+0x4d0d1>
    a330:	e9 79 6c 02 00       	jmp    30fae <warn@@Base+0x24577>
    a335:	c6 44 24 7e 01       	movb   $0x1,0x7e(%rsp)
    a33a:	e9 51 5e 02 00       	jmp    30190 <warn@@Base+0x23759>
    a33f:	83 3d c2 18 05 00 00 	cmpl   $0x0,0x518c2(%rip)        # 5bc08 <warn@@Base+0x4f1d1>
    a346:	0f 85 87 00 00 00    	jne    a3d3 <error@@Base+0x1dcb>
    a34c:	80 7c 24 7f 00       	cmpb   $0x0,0x7f(%rsp)
    a351:	0f 85 86 00 00 00    	jne    a3dd <error@@Base+0x1dd5>
    a357:	44 8b 35 9e 3a 05 00 	mov    0x53a9e(%rip),%r14d        # 5ddfc <warn@@Base+0x513c5>
    a35e:	8b 8c 24 84 00 00 00 	mov    0x84(%rsp),%ecx
    a365:	44 39 f1             	cmp    %r14d,%ecx
    a368:	44 0f 46 f1          	cmovbe %ecx,%r14d
    a36c:	44 89 35 95 18 05 00 	mov    %r14d,0x51895(%rip)        # 5bc08 <warn@@Base+0x4f1d1>
    a373:	e9 d5 6e 02 00       	jmp    3124d <warn@@Base+0x24816>
    a378:	83 3d 89 18 05 00 00 	cmpl   $0x0,0x51889(%rip)        # 5bc08 <warn@@Base+0x4f1d1>
    a37f:	0f 84 8e 62 02 00    	je     30613 <warn@@Base+0x23bdc>
    a385:	e9 c4 6a 02 00       	jmp    30e4e <warn@@Base+0x24417>
    a38a:	83 3d 77 18 05 00 00 	cmpl   $0x0,0x51877(%rip)        # 5bc08 <warn@@Base+0x4f1d1>
    a391:	75 3b                	jne    a3ce <error@@Base+0x1dc6>
    a393:	45 84 ff             	test   %r15b,%r15b
    a396:	75 40                	jne    a3d8 <error@@Base+0x1dd0>
    a398:	44 8b a4 24 84 00 00 	mov    0x84(%rsp),%r12d
    a39f:	00 
    a3a0:	4d 6b ec 68          	imul   $0x68,%r12,%r13
    a3a4:	4c 89 ef             	mov    %r13,%rdi
    a3a7:	ff 15 7b fa 04 00    	call   *0x4fa7b(%rip)        # 59e28 <warn@@Base+0x4d3f1>
    a3ad:	4c 89 ea             	mov    %r13,%rdx
    a3b0:	31 f6                	xor    %esi,%esi
    a3b2:	48 89 05 57 18 05 00 	mov    %rax,0x51857(%rip)        # 5bc10 <warn@@Base+0x4f1d9>
    a3b9:	48 89 c7             	mov    %rax,%rdi
    a3bc:	ff 15 4e f8 04 00    	call   *0x4f84e(%rip)        # 59c10 <warn@@Base+0x4d1d9>
    a3c2:	44 89 25 33 3a 05 00 	mov    %r12d,0x53a33(%rip)        # 5ddfc <warn@@Base+0x513c5>
    a3c9:	e9 cc 6d 02 00       	jmp    3119a <warn@@Base+0x24763>
    a3ce:	e9 c7 6d 02 00       	jmp    3119a <warn@@Base+0x24763>
    a3d3:	e9 75 6e 02 00       	jmp    3124d <warn@@Base+0x24816>
    a3d8:	e9 bd 6d 02 00       	jmp    3119a <warn@@Base+0x24763>
    a3dd:	e9 6b 6e 02 00       	jmp    3124d <warn@@Base+0x24816>
    a3e2:	45 31 c0             	xor    %r8d,%r8d
    a3e5:	e9 77 6f 02 00       	jmp    31361 <warn@@Base+0x2492a>
    a3ea:	31 ed                	xor    %ebp,%ebp
    a3ec:	45 31 c0             	xor    %r8d,%r8d
    a3ef:	e9 6d 6f 02 00       	jmp    31361 <warn@@Base+0x2492a>
    a3f4:	31 ed                	xor    %ebp,%ebp
    a3f6:	4d 85 c0             	test   %r8,%r8
    a3f9:	0f 84 62 6f 02 00    	je     31361 <warn@@Base+0x2492a>
    a3ff:	e9 08 6f 02 00       	jmp    3130c <warn@@Base+0x248d5>
    a404:	31 ed                	xor    %ebp,%ebp
    a406:	45 31 c0             	xor    %r8d,%r8d
    a409:	e9 53 6f 02 00       	jmp    31361 <warn@@Base+0x2492a>
    a40e:	44 0f b6 7c 24 7e    	movzbl 0x7e(%rsp),%r15d
    a414:	4c 89 e3             	mov    %r12,%rbx
    a417:	44 88 3c 24          	mov    %r15b,(%rsp)
    a41b:	80 3c 24 00          	cmpb   $0x0,(%rsp)
    a41f:	0f 85 e7 00 00 00    	jne    a50c <error@@Base+0x1f04>
    a425:	ba 05 00 00 00       	mov    $0x5,%edx
    a42a:	48 8d 35 ef 7f 03 00 	lea    0x37fef(%rip),%rsi        # 42420 <warn@@Base+0x359e9>
    a431:	31 ff                	xor    %edi,%edi
    a433:	ff 15 3f f8 04 00    	call   *0x4f83f(%rip)        # 59c78 <warn@@Base+0x4d241>
    a439:	48 89 da             	mov    %rbx,%rdx
    a43c:	4c 89 ee             	mov    %r13,%rsi
    a43f:	48 89 c7             	mov    %rax,%rdi
    a442:	31 c0                	xor    %eax,%eax
    a444:	67 e8 ed 25 00 00    	addr32 call ca37 <warn@@Base>
    a44a:	31 c0                	xor    %eax,%eax
    a44c:	e9 5e 68 02 00       	jmp    30caf <warn@@Base+0x24278>
    a451:	c6 44 24 7d 00       	movb   $0x0,0x7d(%rsp)
    a456:	45 31 c9             	xor    %r9d,%r9d
    a459:	e9 03 6d 02 00       	jmp    31161 <warn@@Base+0x2472a>
    a45e:	80 3a 00             	cmpb   $0x0,(%rdx)
    a461:	75 09                	jne    a46c <error@@Base+0x1e64>
    a463:	48 83 c2 01          	add    $0x1,%rdx
    a467:	e9 24 6f 02 00       	jmp    31390 <warn@@Base+0x24959>
    a46c:	80 7c 24 7c 00       	cmpb   $0x0,0x7c(%rsp)
    a471:	74 7f                	je     a4f2 <error@@Base+0x1eea>
    a473:	c7 44 24 08 ff ff ff 	movl   $0xffffffff,0x8(%rsp)
    a47a:	ff 
    a47b:	83 3d 76 39 05 00 02 	cmpl   $0x2,0x53976(%rip)        # 5ddf8 <warn@@Base+0x513c1>
    a482:	0f 87 b6 65 02 00    	ja     30a3e <warn@@Base+0x24007>
    a488:	4c 8b 44 24 28       	mov    0x28(%rsp),%r8
    a48d:	ba 05 00 00 00       	mov    $0x5,%edx
    a492:	48 8d 35 df 7e 03 00 	lea    0x37edf(%rip),%rsi        # 42378 <warn@@Base+0x35941>
    a499:	31 ff                	xor    %edi,%edi
    a49b:	4d 8b 70 18          	mov    0x18(%r8),%r14
    a49f:	ff 15 d3 f7 04 00    	call   *0x4f7d3(%rip)        # 59c78 <warn@@Base+0x4d241>
    a4a5:	4c 89 ee             	mov    %r13,%rsi
    a4a8:	48 89 c7             	mov    %rax,%rdi
    a4ab:	4c 89 f2             	mov    %r14,%rdx
    a4ae:	31 c0                	xor    %eax,%eax
    a4b0:	67 e8 81 25 00 00    	addr32 call ca37 <warn@@Base>
    a4b6:	8b 3d 3c 39 05 00    	mov    0x5393c(%rip),%edi        # 5ddf8 <warn@@Base+0x513c1>
    a4bc:	83 c7 01             	add    $0x1,%edi
    a4bf:	89 3d 33 39 05 00    	mov    %edi,0x53933(%rip)        # 5ddf8 <warn@@Base+0x513c1>
    a4c5:	83 ff 03             	cmp    $0x3,%edi
    a4c8:	0f 85 70 65 02 00    	jne    30a3e <warn@@Base+0x24007>
    a4ce:	31 ff                	xor    %edi,%edi
    a4d0:	ba 05 00 00 00       	mov    $0x5,%edx
    a4d5:	48 8d 35 e4 7e 03 00 	lea    0x37ee4(%rip),%rsi        # 423c0 <warn@@Base+0x35989>
    a4dc:	ff 15 96 f7 04 00    	call   *0x4f796(%rip)        # 59c78 <warn@@Base+0x4d241>
    a4e2:	48 89 c7             	mov    %rax,%rdi
    a4e5:	31 c0                	xor    %eax,%eax
    a4e7:	67 e8 4a 25 00 00    	addr32 call ca37 <warn@@Base>
    a4ed:	e9 4c 65 02 00       	jmp    30a3e <warn@@Base+0x24007>
    a4f2:	4c 39 2d d7 39 05 00 	cmp    %r13,0x539d7(%rip)        # 5ded0 <warn@@Base+0x51499>
    a4f9:	0f 86 1e 68 02 00    	jbe    30d1d <warn@@Base+0x242e6>
    a4ff:	c7 44 24 08 ff ff ff 	movl   $0xffffffff,0x8(%rsp)
    a506:	ff 
    a507:	e9 6f ff ff ff       	jmp    a47b <error@@Base+0x1e73>
    a50c:	bf 0a 00 00 00       	mov    $0xa,%edi
    a511:	ff 15 29 f9 04 00    	call   *0x4f929(%rip)        # 59e40 <warn@@Base+0x4d409>
    a517:	4c 8b 25 0a f6 04 00 	mov    0x4f60a(%rip),%r12        # 59b28 <warn@@Base+0x4d0f1>
    a51e:	49 8b 3c 24          	mov    (%r12),%rdi
    a522:	ff 15 38 f8 04 00    	call   *0x4f838(%rip)        # 59d60 <warn@@Base+0x4d329>
    a528:	e9 f8 fe ff ff       	jmp    a425 <error@@Base+0x1e1d>
    a52d:	4d 01 fd             	add    %r15,%r13
    a530:	49 89 d8             	mov    %rbx,%r8
    a533:	4d 29 e8             	sub    %r13,%r8
    a536:	49 39 dd             	cmp    %rbx,%r13
    a539:	0f 87 ee 5d 02 00    	ja     3032d <warn@@Base+0x238f6>
    a53f:	49 83 f8 07          	cmp    $0x7,%r8
    a543:	77 6a                	ja     a5af <error@@Base+0x1fa7>
    a545:	4d 85 c0             	test   %r8,%r8
    a548:	0f 84 df 5d 02 00    	je     3032d <warn@@Base+0x238f6>
    a54e:	44 89 c6             	mov    %r8d,%esi
    a551:	4c 89 ef             	mov    %r13,%rdi
    a554:	ff 15 0e 18 05 00    	call   *0x5180e(%rip)        # 5bd68 <warn@@Base+0x4f331>
    a55a:	e9 ce 5d 02 00       	jmp    3032d <warn@@Base+0x238f6>
    a55f:	ba 05 00 00 00       	mov    $0x5,%edx
    a564:	48 8d 35 1d 7c 03 00 	lea    0x37c1d(%rip),%rsi        # 42188 <warn@@Base+0x35751>
    a56b:	31 ff                	xor    %edi,%edi
    a56d:	ff 15 05 f7 04 00    	call   *0x4f705(%rip)        # 59c78 <warn@@Base+0x4d241>
    a573:	8b 6c 24 08          	mov    0x8(%rsp),%ebp
    a577:	0f b6 74 24 7d       	movzbl 0x7d(%rsp),%esi
    a57c:	48 89 c7             	mov    %rax,%rdi
    a57f:	31 c0                	xor    %eax,%eax
    a581:	89 ea                	mov    %ebp,%edx
    a583:	67 e8 ae 24 00 00    	addr32 call ca37 <warn@@Base>
    a589:	40 88 6c 24 7d       	mov    %bpl,0x7d(%rsp)
    a58e:	e9 37 60 02 00       	jmp    305ca <warn@@Base+0x23b93>
    a593:	c6 44 24 7f 00       	movb   $0x0,0x7f(%rsp)
    a598:	45 31 ff             	xor    %r15d,%r15d
    a59b:	e9 28 5d 02 00       	jmp    302c8 <warn@@Base+0x23891>
    a5a0:	c6 44 24 7f 00       	movb   $0x0,0x7f(%rsp)
    a5a5:	45 31 ff             	xor    %r15d,%r15d
    a5a8:	31 f6                	xor    %esi,%esi
    a5aa:	e9 35 5d 02 00       	jmp    302e4 <warn@@Base+0x238ad>
    a5af:	41 b8 08 00 00 00    	mov    $0x8,%r8d
    a5b5:	eb 97                	jmp    a54e <error@@Base+0x1f46>
    a5b7:	e8 35 4c 00 00       	call   f1f1 <warn@@Base+0x27ba>
    a5bc:	e9 d4 61 02 00       	jmp    30795 <warn@@Base+0x23d5e>
    a5c1:	48 8b 74 24 20       	mov    0x20(%rsp),%rsi
    a5c6:	31 d2                	xor    %edx,%edx
    a5c8:	48 8d 3d 3d be 03 00 	lea    0x3be3d(%rip),%rdi        # 4640c <warn@@Base+0x399d5>
    a5cf:	e8 0c cd 02 00       	call   372e0 <warn@@Base+0x2a8a9>
    a5d4:	31 ff                	xor    %edi,%edi
    a5d6:	ba 05 00 00 00       	mov    $0x5,%edx
    a5db:	48 8d 35 16 7d 03 00 	lea    0x37d16(%rip),%rsi        # 422f8 <warn@@Base+0x358c1>
    a5e2:	49 89 c7             	mov    %rax,%r15
    a5e5:	ff 15 8d f6 04 00    	call   *0x4f68d(%rip)        # 59c78 <warn@@Base+0x4d241>
    a5eb:	44 89 ea             	mov    %r13d,%edx
    a5ee:	4c 89 fe             	mov    %r15,%rsi
    a5f1:	48 89 c7             	mov    %rax,%rdi
    a5f4:	31 c0                	xor    %eax,%eax
    a5f6:	67 e8 3b 24 00 00    	addr32 call ca37 <warn@@Base>
    a5fc:	e9 9e 63 02 00       	jmp    3099f <warn@@Base+0x23f68>
    a601:	48 8b 74 24 20       	mov    0x20(%rsp),%rsi
    a606:	31 d2                	xor    %edx,%edx
    a608:	48 8d 3d fd bd 03 00 	lea    0x3bdfd(%rip),%rdi        # 4640c <warn@@Base+0x399d5>
    a60f:	e8 cc cc 02 00       	call   372e0 <warn@@Base+0x2a8a9>
    a614:	31 ff                	xor    %edi,%edi
    a616:	ba 05 00 00 00       	mov    $0x5,%edx
    a61b:	48 8d 35 8e 7c 03 00 	lea    0x37c8e(%rip),%rsi        # 422b0 <warn@@Base+0x35879>
    a622:	49 89 c4             	mov    %rax,%r12
    a625:	ff 15 4d f6 04 00    	call   *0x4f64d(%rip)        # 59c78 <warn@@Base+0x4d241>
    a62b:	0f b7 14 24          	movzwl (%rsp),%edx
    a62f:	4c 89 e6             	mov    %r12,%rsi
    a632:	48 89 c7             	mov    %rax,%rdi
    a635:	31 c0                	xor    %eax,%eax
    a637:	67 e8 fa 23 00 00    	addr32 call ca37 <warn@@Base>
    a63d:	e9 5d 63 02 00       	jmp    3099f <warn@@Base+0x23f68>
    a642:	4c 8b 6c 24 38       	mov    0x38(%rsp),%r13
    a647:	48 89 de             	mov    %rbx,%rsi
    a64a:	4c 89 ef             	mov    %r13,%rdi
    a64d:	e8 8e 17 03 00       	call   3bde0 <warn@@Base+0x2f3a9>
    a652:	48 8b 4c 24 48       	mov    0x48(%rsp),%rcx
    a657:	49 89 d8             	mov    %rbx,%r8
    a65a:	4c 89 ea             	mov    %r13,%rdx
    a65d:	4c 8b 9c 24 a8 00 00 	mov    0xa8(%rsp),%r11
    a664:	00 
    a665:	49 89 c1             	mov    %rax,%r9
    a668:	49 89 c4             	mov    %rax,%r12
    a66b:	48 89 44 24 60       	mov    %rax,0x60(%rsp)
    a670:	49 8b 73 38          	mov    0x38(%r11),%rsi
    a674:	49 8b 7b 28          	mov    0x28(%r11),%rdi
    a678:	e8 c3 9c 02 00       	call   34340 <warn@@Base+0x27909>
    a67d:	49 89 44 24 28       	mov    %rax,0x28(%r12)
    a682:	e9 67 60 02 00       	jmp    306ee <warn@@Base+0x23cb7>
    a687:	48 8d 0d 72 8f 03 00 	lea    0x38f72(%rip),%rcx        # 43600 <warn@@Base+0x36bc9>
    a68e:	ba 8e 0f 00 00       	mov    $0xf8e,%edx
    a693:	48 8d 35 1e 78 03 00 	lea    0x3781e(%rip),%rsi        # 41eb8 <warn@@Base+0x35481>
    a69a:	48 8d 3d 1f 7e 03 00 	lea    0x37e1f(%rip),%rdi        # 424c0 <warn@@Base+0x35a89>
    a6a1:	ff 15 c9 f5 04 00    	call   *0x4f5c9(%rip)        # 59c70 <warn@@Base+0x4d239>
    a6a7:	ba 05 00 00 00       	mov    $0x5,%edx
    a6ac:	48 8d 35 4d 7e 03 00 	lea    0x37e4d(%rip),%rsi        # 42500 <warn@@Base+0x35ac9>
    a6b3:	31 ff                	xor    %edi,%edi
    a6b5:	ff 15 bd f5 04 00    	call   *0x4f5bd(%rip)        # 59c78 <warn@@Base+0x4d241>
    a6bb:	48 89 c7             	mov    %rax,%rdi
    a6be:	31 c0                	xor    %eax,%eax
    a6c0:	67 e8 71 23 00 00    	addr32 call ca37 <warn@@Base>
    a6c6:	41 83 6c 24 50 01    	subl   $0x1,0x50(%r12)
    a6cc:	e9 b6 62 02 00       	jmp    30987 <warn@@Base+0x23f50>
    a6d1:	48 8d 0d 28 8f 03 00 	lea    0x38f28(%rip),%rcx        # 43600 <warn@@Base+0x36bc9>
    a6d8:	ba 69 0f 00 00       	mov    $0xf69,%edx
    a6dd:	48 8d 35 d4 77 03 00 	lea    0x377d4(%rip),%rsi        # 41eb8 <warn@@Base+0x35481>
    a6e4:	48 8d 3d 85 7d 03 00 	lea    0x37d85(%rip),%rdi        # 42470 <warn@@Base+0x35a39>
    a6eb:	ff 15 7f f5 04 00    	call   *0x4f57f(%rip)        # 59c70 <warn@@Base+0x4d239>
    a6f1:	4c 8b 5d 18          	mov    0x18(%rbp),%r11
    a6f5:	4d 85 db             	test   %r11,%r11
    a6f8:	0f 85 a0 63 02 00    	jne    30a9e <warn@@Base+0x24067>
    a6fe:	e9 84 62 02 00       	jmp    30987 <warn@@Base+0x23f50>
    a703:	4c 8b 5c 24 10       	mov    0x10(%rsp),%r11
    a708:	4d 89 de             	mov    %r11,%r14
    a70b:	4d 29 fe             	sub    %r15,%r14
    a70e:	4d 39 df             	cmp    %r11,%r15
    a711:	76 27                	jbe    a73a <error@@Base+0x2132>
    a713:	31 c0                	xor    %eax,%eax
    a715:	45 31 f6             	xor    %r14d,%r14d
    a718:	c6 44 24 50 01       	movb   $0x1,0x50(%rsp)
    a71d:	49 01 c7             	add    %rax,%r15
    a720:	e9 95 5e 02 00       	jmp    305ba <warn@@Base+0x23b83>
    a725:	c6 44 24 7f 00       	movb   $0x0,0x7f(%rsp)
    a72a:	45 31 ed             	xor    %r13d,%r13d
    a72d:	45 31 d2             	xor    %r10d,%r10d
    a730:	c6 44 24 7d 00       	movb   $0x0,0x7d(%rsp)
    a735:	e9 eb 5d 02 00       	jmp    30525 <warn@@Base+0x23aee>
    a73a:	49 83 fe 07          	cmp    $0x7,%r14
    a73e:	77 17                	ja     a757 <error@@Base+0x214f>
    a740:	31 c0                	xor    %eax,%eax
    a742:	4d 85 f6             	test   %r14,%r14
    a745:	74 d1                	je     a718 <error@@Base+0x2110>
    a747:	44 89 f6             	mov    %r14d,%esi
    a74a:	4c 89 ff             	mov    %r15,%rdi
    a74d:	ff 15 15 16 05 00    	call   *0x51615(%rip)        # 5bd68 <warn@@Base+0x4f331>
    a753:	49 96                	xchg   %rax,%r14
    a755:	eb c1                	jmp    a718 <error@@Base+0x2110>
    a757:	41 be 08 00 00 00    	mov    $0x8,%r14d
    a75d:	eb e8                	jmp    a747 <error@@Base+0x213f>
    a75f:	48 85 c0             	test   %rax,%rax
    a762:	0f 85 1f 01 00 00    	jne    a887 <error@@Base+0x227f>
    a768:	0f b6 74 24 7f       	movzbl 0x7f(%rsp),%esi
    a76d:	4c 89 f7             	mov    %r14,%rdi
    a770:	41 bf 01 00 00 00    	mov    $0x1,%r15d
    a776:	e8 65 13 03 00       	call   3bae0 <warn@@Base+0x2f0a9>
    a77b:	49 89 c4             	mov    %rax,%r12
    a77e:	e9 64 5b 02 00       	jmp    302e7 <warn@@Base+0x238b0>
    a783:	4d 39 eb             	cmp    %r13,%r11
    a786:	0f 86 1a 03 00 00    	jbe    aaa6 <error@@Base+0x249e>
    a78c:	c6 04 24 00          	movb   $0x0,(%rsp)
    a790:	45 31 f6             	xor    %r14d,%r14d
    a793:	e9 c3 64 02 00       	jmp    30c5b <warn@@Base+0x24224>
    a798:	31 db                	xor    %ebx,%ebx
    a79a:	e9 c6 5d 02 00       	jmp    30565 <warn@@Base+0x23b2e>
    a79f:	48 6b 34 24 70       	imul   $0x70,(%rsp),%rsi
    a7a4:	4c 8b 84 24 88 00 00 	mov    0x88(%rsp),%r8
    a7ab:	00 
    a7ac:	ba 05 00 00 00       	mov    $0x5,%edx
    a7b1:	31 ff                	xor    %edi,%edi
    a7b3:	49 8b 2c 30          	mov    (%r8,%rsi,1),%rbp
    a7b7:	48 8d 35 a3 5f 03 00 	lea    0x35fa3(%rip),%rsi        # 40761 <warn@@Base+0x33d2a>
    a7be:	ff 15 b4 f4 04 00    	call   *0x4f4b4(%rip)        # 59c78 <warn@@Base+0x4d241>
    a7c4:	48 89 c7             	mov    %rax,%rdi
    a7c7:	48 89 ee             	mov    %rbp,%rsi
    a7ca:	31 c0                	xor    %eax,%eax
    a7cc:	67 e8 65 22 00 00    	addr32 call ca37 <warn@@Base>
    a7d2:	31 c0                	xor    %eax,%eax
    a7d4:	e9 d6 64 02 00       	jmp    30caf <warn@@Base+0x24278>
    a7d9:	31 ed                	xor    %ebp,%ebp
    a7db:	83 fa 01             	cmp    $0x1,%edx
    a7de:	0f 86 5b fd ff ff    	jbe    a53f <error@@Base+0x1f37>
    a7e4:	e9 44 5b 02 00       	jmp    3032d <warn@@Base+0x238f6>
    a7e9:	31 ed                	xor    %ebp,%ebp
    a7eb:	e9 3d 5b 02 00       	jmp    3032d <warn@@Base+0x238f6>
    a7f0:	31 f6                	xor    %esi,%esi
    a7f2:	e9 ed 5a 02 00       	jmp    302e4 <warn@@Base+0x238ad>
    a7f7:	4d 85 e4             	test   %r12,%r12
    a7fa:	75 31                	jne    a82d <error@@Base+0x2225>
    a7fc:	0f b6 74 24 7f       	movzbl 0x7f(%rsp),%esi
    a801:	48 8b 7c 24 20       	mov    0x20(%rsp),%rdi
    a806:	41 bd 01 00 00 00    	mov    $0x1,%r13d
    a80c:	e8 cf 12 03 00       	call   3bae0 <warn@@Base+0x2f0a9>
    a811:	66 c7 04 24 00 00    	movw   $0x0,(%rsp)
    a817:	48 89 44 24 18       	mov    %rax,0x18(%rsp)
    a81c:	c6 44 24 7d ff       	movb   $0xff,0x7d(%rsp)
    a821:	e9 02 5d 02 00       	jmp    30528 <warn@@Base+0x23af1>
    a826:	31 f6                	xor    %esi,%esi
    a828:	e9 b7 5a 02 00       	jmp    302e4 <warn@@Base+0x238ad>
    a82d:	41 bf 01 00 00 00    	mov    $0x1,%r15d
    a833:	e9 59 5c 02 00       	jmp    30491 <warn@@Base+0x23a5a>
    a838:	45 31 ff             	xor    %r15d,%r15d
    a83b:	31 db                	xor    %ebx,%ebx
    a83d:	e9 23 5d 02 00       	jmp    30565 <warn@@Base+0x23b2e>
    a842:	c6 44 24 7d 00       	movb   $0x0,0x7d(%rsp)
    a847:	45 31 d2             	xor    %r10d,%r10d
    a84a:	e9 d6 5c 02 00       	jmp    30525 <warn@@Base+0x23aee>
    a84f:	c6 44 24 7f 00       	movb   $0x0,0x7f(%rsp)
    a854:	45 31 ed             	xor    %r13d,%r13d
    a857:	e9 a6 5c 02 00       	jmp    30502 <warn@@Base+0x23acb>
    a85c:	c6 44 24 7d 00       	movb   $0x0,0x7d(%rsp)
    a861:	45 31 d2             	xor    %r10d,%r10d
    a864:	e9 bc 5c 02 00       	jmp    30525 <warn@@Base+0x23aee>
    a869:	3b 9c 24 b0 00 00 00 	cmp    0xb0(%rsp),%ebx
    a870:	7f 20                	jg     a892 <error@@Base+0x228a>
    a872:	44 8b 44 24 08       	mov    0x8(%rsp),%r8d
    a877:	45 31 f6             	xor    %r14d,%r14d
    a87a:	44 89 84 24 b0 00 00 	mov    %r8d,0xb0(%rsp)
    a881:	00 
    a882:	e9 d4 63 02 00       	jmp    30c5b <warn@@Base+0x24224>
    a887:	41 bf 01 00 00 00    	mov    $0x1,%r15d
    a88d:	e9 c4 59 02 00       	jmp    30256 <warn@@Base+0x2381f>
    a892:	ba 05 00 00 00       	mov    $0x5,%edx
    a897:	48 8d 35 de 5f 03 00 	lea    0x35fde(%rip),%rsi        # 4087c <warn@@Base+0x33e45>
    a89e:	31 ff                	xor    %edi,%edi
    a8a0:	ff 15 d2 f3 04 00    	call   *0x4f3d2(%rip)        # 59c78 <warn@@Base+0x4d241>
    a8a6:	44 8b 74 24 08       	mov    0x8(%rsp),%r14d
    a8ab:	4c 89 e9             	mov    %r13,%rcx
    a8ae:	bf 01 00 00 00       	mov    $0x1,%edi
    a8b3:	48 89 c6             	mov    %rax,%rsi
    a8b6:	31 c0                	xor    %eax,%eax
    a8b8:	44 89 f2             	mov    %r14d,%edx
    a8bb:	ff 15 47 f2 04 00    	call   *0x4f247(%rip)        # 59b08 <warn@@Base+0x4d0d1>
    a8c1:	44 89 b4 24 b0 00 00 	mov    %r14d,0xb0(%rsp)
    a8c8:	00 
    a8c9:	45 31 f6             	xor    %r14d,%r14d
    a8cc:	e9 8a 63 02 00       	jmp    30c5b <warn@@Base+0x24224>
    a8d1:	4c 8b 44 24 70       	mov    0x70(%rsp),%r8
    a8d6:	4d 89 c5             	mov    %r8,%r13
    a8d9:	49 29 ed             	sub    %rbp,%r13
    a8dc:	49 39 e8             	cmp    %rbp,%r8
    a8df:	73 31                	jae    a912 <error@@Base+0x230a>
    a8e1:	45 31 e4             	xor    %r12d,%r12d
    a8e4:	45 31 ed             	xor    %r13d,%r13d
    a8e7:	c7 44 24 08 08 00 00 	movl   $0x8,0x8(%rsp)
    a8ee:	00 
    a8ef:	4c 01 ed             	add    %r13,%rbp
    a8f2:	e9 79 5b 02 00       	jmp    30470 <warn@@Base+0x23a39>
    a8f7:	4d 85 e4             	test   %r12,%r12
    a8fa:	0f 85 47 5b 02 00    	jne    30447 <warn@@Base+0x23a10>
    a900:	48 89 6c 24 10       	mov    %rbp,0x10(%rsp)
    a905:	c7 44 24 08 04 00 00 	movl   $0x4,0x8(%rsp)
    a90c:	00 
    a90d:	e9 ea fe ff ff       	jmp    a7fc <error@@Base+0x21f4>
    a912:	49 83 fd 07          	cmp    $0x7,%r13
    a916:	0f 87 7f 01 00 00    	ja     aa9b <error@@Base+0x2493>
    a91c:	45 31 e4             	xor    %r12d,%r12d
    a91f:	4d 85 ed             	test   %r13,%r13
    a922:	74 c3                	je     a8e7 <error@@Base+0x22df>
    a924:	44 89 ee             	mov    %r13d,%esi
    a927:	48 89 ef             	mov    %rbp,%rdi
    a92a:	ff 15 38 14 05 00    	call   *0x51438(%rip)        # 5bd68 <warn@@Base+0x4f331>
    a930:	49 89 c4             	mov    %rax,%r12
    a933:	eb b2                	jmp    a8e7 <error@@Base+0x22df>
    a935:	4c 8b 5c 24 28       	mov    0x28(%rsp),%r11
    a93a:	31 d2                	xor    %edx,%edx
    a93c:	48 8d 3d c9 ba 03 00 	lea    0x3bac9(%rip),%rdi        # 4640c <warn@@Base+0x399d5>
    a943:	49 8b 5b 18          	mov    0x18(%r11),%rbx
    a947:	e8 94 c9 02 00       	call   372e0 <warn@@Base+0x2a8a9>
    a94c:	ba 05 00 00 00       	mov    $0x5,%edx
    a951:	48 8d 35 90 77 03 00 	lea    0x37790(%rip),%rsi        # 420e8 <warn@@Base+0x356b1>
    a958:	31 ff                	xor    %edi,%edi
    a95a:	48 89 c5             	mov    %rax,%rbp
    a95d:	ff 15 15 f3 04 00    	call   *0x4f315(%rip)        # 59c78 <warn@@Base+0x4d241>
    a963:	48 89 da             	mov    %rbx,%rdx
    a966:	48 89 ee             	mov    %rbp,%rsi
    a969:	48 89 c7             	mov    %rax,%rdi
    a96c:	31 c0                	xor    %eax,%eax
    a96e:	67 e8 c3 20 00 00    	addr32 call ca37 <warn@@Base>
    a974:	31 c0                	xor    %eax,%eax
    a976:	e9 34 63 02 00       	jmp    30caf <warn@@Base+0x24278>
    a97b:	49 89 de             	mov    %rbx,%r14
    a97e:	49 29 ee             	sub    %rbp,%r14
    a981:	48 39 eb             	cmp    %rbp,%rbx
    a984:	0f 83 d7 00 00 00    	jae    aa61 <error@@Base+0x2459>
    a98a:	31 c0                	xor    %eax,%eax
    a98c:	45 31 f6             	xor    %r14d,%r14d
    a98f:	48 01 c5             	add    %rax,%rbp
    a992:	e9 44 57 02 00       	jmp    300db <warn@@Base+0x236a4>
    a997:	48 8b 4c 24 70       	mov    0x70(%rsp),%rcx
    a99c:	49 89 cf             	mov    %rcx,%r15
    a99f:	4d 29 ef             	sub    %r13,%r15
    a9a2:	4c 39 e9             	cmp    %r13,%rcx
    a9a5:	0f 83 13 01 00 00    	jae    aabe <error@@Base+0x24b6>
    a9ab:	31 c0                	xor    %eax,%eax
    a9ad:	45 31 ff             	xor    %r15d,%r15d
    a9b0:	4d 01 fd             	add    %r15,%r13
    a9b3:	bd 08 00 00 00       	mov    $0x8,%ebp
    a9b8:	e9 7d 58 02 00       	jmp    3023a <warn@@Base+0x23803>
    a9bd:	48 8b 54 24 28       	mov    0x28(%rsp),%rdx
    a9c2:	48 8d 35 9f 77 03 00 	lea    0x3779f(%rip),%rsi        # 42168 <warn@@Base+0x35731>
    a9c9:	31 ff                	xor    %edi,%edi
    a9cb:	4c 8b 72 18          	mov    0x18(%rdx),%r14
    a9cf:	ba 05 00 00 00       	mov    $0x5,%edx
    a9d4:	ff 15 9e f2 04 00    	call   *0x4f29e(%rip)        # 59c78 <warn@@Base+0x4d241>
    a9da:	48 89 c7             	mov    %rax,%rdi
    a9dd:	4c 89 f6             	mov    %r14,%rsi
    a9e0:	31 c0                	xor    %eax,%eax
    a9e2:	67 e8 20 dc ff ff    	addr32 call 8608 <error@@Base>
    a9e8:	31 c0                	xor    %eax,%eax
    a9ea:	e9 c0 62 02 00       	jmp    30caf <warn@@Base+0x24278>
    a9ef:	48 8b 4c 24 28       	mov    0x28(%rsp),%rcx
    a9f4:	4c 8d 3d 11 ba 03 00 	lea    0x3ba11(%rip),%r15        # 4640c <warn@@Base+0x399d5>
    a9fb:	31 d2                	xor    %edx,%edx
    a9fd:	4c 89 ff             	mov    %r15,%rdi
    aa00:	4c 8b 69 18          	mov    0x18(%rcx),%r13
    aa04:	e8 d7 c8 02 00       	call   372e0 <warn@@Base+0x2a8a9>
    aa09:	4c 89 f6             	mov    %r14,%rsi
    aa0c:	31 d2                	xor    %edx,%edx
    aa0e:	4c 89 ff             	mov    %r15,%rdi
    aa11:	49 89 c4             	mov    %rax,%r12
    aa14:	e8 c7 c8 02 00       	call   372e0 <warn@@Base+0x2a8a9>
    aa19:	ba 05 00 00 00       	mov    $0x5,%edx
    aa1e:	48 8d 35 fb 76 03 00 	lea    0x376fb(%rip),%rsi        # 42120 <warn@@Base+0x356e9>
    aa25:	31 ff                	xor    %edi,%edi
    aa27:	49 89 c6             	mov    %rax,%r14
    aa2a:	ff 15 48 f2 04 00    	call   *0x4f248(%rip)        # 59c78 <warn@@Base+0x4d241>
    aa30:	4c 89 e9             	mov    %r13,%rcx
    aa33:	4c 89 e2             	mov    %r12,%rdx
    aa36:	4c 89 f6             	mov    %r14,%rsi
    aa39:	48 89 c7             	mov    %rax,%rdi
    aa3c:	31 c0                	xor    %eax,%eax
    aa3e:	67 e8 f3 1f 00 00    	addr32 call ca37 <warn@@Base>
    aa44:	31 c0                	xor    %eax,%eax
    aa46:	e9 64 62 02 00       	jmp    30caf <warn@@Base+0x24278>
    aa4b:	48 85 db             	test   %rbx,%rbx
    aa4e:	0f 85 c4 57 02 00    	jne    30218 <warn@@Base+0x237e1>
    aa54:	4c 89 eb             	mov    %r13,%rbx
    aa57:	bd 04 00 00 00       	mov    $0x4,%ebp
    aa5c:	e9 07 fd ff ff       	jmp    a768 <error@@Base+0x2160>
    aa61:	49 83 fe 07          	cmp    $0x7,%r14
    aa65:	77 1e                	ja     aa85 <error@@Base+0x247d>
    aa67:	31 c0                	xor    %eax,%eax
    aa69:	4d 85 f6             	test   %r14,%r14
    aa6c:	0f 84 1d ff ff ff    	je     a98f <error@@Base+0x2387>
    aa72:	44 89 f6             	mov    %r14d,%esi
    aa75:	48 89 ef             	mov    %rbp,%rdi
    aa78:	ff 15 ea 12 05 00    	call   *0x512ea(%rip)        # 5bd68 <warn@@Base+0x4f331>
    aa7e:	49 96                	xchg   %rax,%r14
    aa80:	e9 0a ff ff ff       	jmp    a98f <error@@Base+0x2387>
    aa85:	41 be 08 00 00 00    	mov    $0x8,%r14d
    aa8b:	eb e5                	jmp    aa72 <error@@Base+0x246a>
    aa8d:	4d 85 f6             	test   %r14,%r14
    aa90:	0f 84 54 56 02 00    	je     300ea <warn@@Base+0x236b3>
    aa96:	e9 0f 56 02 00       	jmp    300aa <warn@@Base+0x23673>
    aa9b:	41 bd 08 00 00 00    	mov    $0x8,%r13d
    aaa1:	e9 7e fe ff ff       	jmp    a924 <error@@Base+0x231c>
    aaa6:	8b 8c 24 80 00 00 00 	mov    0x80(%rsp),%ecx
    aaad:	0f 44 4c 24 08       	cmove  0x8(%rsp),%ecx
    aab2:	89 8c 24 80 00 00 00 	mov    %ecx,0x80(%rsp)
    aab9:	e9 38 61 02 00       	jmp    30bf6 <warn@@Base+0x241bf>
    aabe:	49 83 ff 07          	cmp    $0x7,%r15
    aac2:	77 1c                	ja     aae0 <error@@Base+0x24d8>
    aac4:	31 c0                	xor    %eax,%eax
    aac6:	4d 85 ff             	test   %r15,%r15
    aac9:	0f 84 e1 fe ff ff    	je     a9b0 <error@@Base+0x23a8>
    aacf:	44 89 fe             	mov    %r15d,%esi
    aad2:	4c 89 ef             	mov    %r13,%rdi
    aad5:	ff 15 8d 12 05 00    	call   *0x5128d(%rip)        # 5bd68 <warn@@Base+0x4f331>
    aadb:	e9 d0 fe ff ff       	jmp    a9b0 <error@@Base+0x23a8>
    aae0:	41 bf 08 00 00 00    	mov    $0x8,%r15d
    aae6:	eb e7                	jmp    aacf <error@@Base+0x24c7>
    aae8:	49 8b 6f 18          	mov    0x18(%r15),%rbp
    aaec:	48 85 ed             	test   %rbp,%rbp
    aaef:	0f 84 af 00 00 00    	je     aba4 <error@@Base+0x259c>
    aaf5:	31 ff                	xor    %edi,%edi
    aaf7:	ba 05 00 00 00       	mov    $0x5,%edx
    aafc:	48 8d 35 25 7a 03 00 	lea    0x37a25(%rip),%rsi        # 42528 <warn@@Base+0x35af1>
    ab03:	ff 15 6f f1 04 00    	call   *0x4f16f(%rip)        # 59c78 <warn@@Base+0x4d241>
    ab09:	48 89 ee             	mov    %rbp,%rsi
    ab0c:	48 89 c7             	mov    %rax,%rdi
    ab0f:	31 c0                	xor    %eax,%eax
    ab11:	67 e8 20 1f 00 00    	addr32 call ca37 <warn@@Base>
    ab17:	e9 8c 08 03 00       	jmp    3b3a8 <warn@@Base+0x2e971>
    ab1c:	ba 05 00 00 00       	mov    $0x5,%edx
    ab21:	31 ff                	xor    %edi,%edi
    ab23:	48 8d 35 4e 7a 03 00 	lea    0x37a4e(%rip),%rsi        # 42578 <warn@@Base+0x35b41>
    ab2a:	ff 15 48 f1 04 00    	call   *0x4f148(%rip)        # 59c78 <warn@@Base+0x4d241>
    ab30:	48 89 ee             	mov    %rbp,%rsi
    ab33:	48 89 c7             	mov    %rax,%rdi
    ab36:	31 c0                	xor    %eax,%eax
    ab38:	67 e8 f9 1e 00 00    	addr32 call ca37 <warn@@Base>
    ab3e:	48 89 ef             	mov    %rbp,%rdi
    ab41:	ff 15 31 f2 04 00    	call   *0x4f231(%rip)        # 59d78 <warn@@Base+0x4d341>
    ab47:	e9 5c 08 03 00       	jmp    3b3a8 <warn@@Base+0x2e971>
    ab4c:	48 89 ef             	mov    %rbp,%rdi
    ab4f:	45 31 ed             	xor    %r13d,%r13d
    ab52:	ff 15 20 f2 04 00    	call   *0x4f220(%rip)        # 59d78 <warn@@Base+0x4d341>
    ab58:	e9 4b 08 03 00       	jmp    3b3a8 <warn@@Base+0x2e971>
    ab5d:	4c 8d 2d 2d e5 03 00 	lea    0x3e52d(%rip),%r13        # 49091 <warn@@Base+0x3c65a>
    ab64:	e9 a7 0a 03 00       	jmp    3b610 <warn@@Base+0x2ebd9>
    ab69:	ba 05 00 00 00       	mov    $0x5,%edx
    ab6e:	48 8d 35 2c 5d 03 00 	lea    0x35d2c(%rip),%rsi        # 408a1 <warn@@Base+0x33e6a>
    ab75:	31 ff                	xor    %edi,%edi
    ab77:	45 31 ed             	xor    %r13d,%r13d
    ab7a:	ff 15 f8 f0 04 00    	call   *0x4f0f8(%rip)        # 59c78 <warn@@Base+0x4d241>
    ab80:	48 89 c7             	mov    %rax,%rdi
    ab83:	31 c0                	xor    %eax,%eax
    ab85:	67 e8 ac 1e 00 00    	addr32 call ca37 <warn@@Base>
    ab8b:	4c 89 e7             	mov    %r12,%rdi
    ab8e:	ff 15 e4 f1 04 00    	call   *0x4f1e4(%rip)        # 59d78 <warn@@Base+0x4d341>
    ab94:	48 8b 7c 24 08       	mov    0x8(%rsp),%rdi
    ab99:	ff 15 d9 f1 04 00    	call   *0x4f1d9(%rip)        # 59d78 <warn@@Base+0x4d341>
    ab9f:	e9 04 08 03 00       	jmp    3b3a8 <warn@@Base+0x2e971>
    aba4:	49 8b 2f             	mov    (%r15),%rbp
    aba7:	e9 49 ff ff ff       	jmp    aaf5 <error@@Base+0x24ed>
    abac:	48 8b 53 08          	mov    0x8(%rbx),%rdx
    abb0:	83 7a 08 10          	cmpl   $0x10,0x8(%rdx)
    abb4:	0f 84 70 69 02 00    	je     3152a <warn@@Base+0x24af3>
    abba:	ba 05 00 00 00       	mov    $0x5,%edx
    abbf:	48 8d 35 32 7a 03 00 	lea    0x37a32(%rip),%rsi        # 425f8 <warn@@Base+0x35bc1>
    abc6:	31 ff                	xor    %edi,%edi
    abc8:	ff 15 aa f0 04 00    	call   *0x4f0aa(%rip)        # 59c78 <warn@@Base+0x4d241>
    abce:	48 8b 3b             	mov    (%rbx),%rdi
    abd1:	4d 89 e1             	mov    %r12,%r9
    abd4:	49 89 e8             	mov    %rbp,%r8
    abd7:	48 89 c1             	mov    %rax,%rcx
    abda:	31 d2                	xor    %edx,%edx
    abdc:	48 89 de             	mov    %rbx,%rsi
    abdf:	31 c0                	xor    %eax,%eax
    abe1:	e8 23 f5 01 00       	call   2a109 <warn@@Base+0x1d6d2>
    abe6:	45 31 e4             	xor    %r12d,%r12d
    abe9:	c7 05 91 11 05 00 01 	movl   $0x1,0x51191(%rip)        # 5bd84 <warn@@Base+0x4f34d>
    abf0:	00 00 00 
    abf3:	48 c7 05 22 32 05 00 	movq   $0x0,0x53222(%rip)        # 5de20 <warn@@Base+0x513e9>
    abfa:	00 00 00 00 
    abfe:	e9 53 69 02 00       	jmp    31556 <warn@@Base+0x24b1f>
    ac03:	48 8b 3b             	mov    (%rbx),%rdi
    ac06:	e8 25 12 03 00       	call   3be30 <warn@@Base+0x2f3f9>
    ac0b:	45 31 e4             	xor    %r12d,%r12d
    ac0e:	e9 23 69 02 00       	jmp    31536 <warn@@Base+0x24aff>
    ac13:	48 8b 1b             	mov    (%rbx),%rbx
    ac16:	ba 05 00 00 00       	mov    $0x5,%edx
    ac1b:	48 8d 35 ae 79 03 00 	lea    0x379ae(%rip),%rsi        # 425d0 <warn@@Base+0x35b99>
    ac22:	31 ff                	xor    %edi,%edi
    ac24:	ff 15 4e f0 04 00    	call   *0x4f04e(%rip)        # 59c78 <warn@@Base+0x4d241>
    ac2a:	48 89 c7             	mov    %rax,%rdi
    ac2d:	48 89 de             	mov    %rbx,%rsi
    ac30:	31 c0                	xor    %eax,%eax
    ac32:	e8 b9 fb 02 00       	call   3a7f0 <warn@@Base+0x2ddb9>
    ac37:	31 ff                	xor    %edi,%edi
    ac39:	ba 05 00 00 00       	mov    $0x5,%edx
    ac3e:	48 8d 35 f8 5c 03 00 	lea    0x35cf8(%rip),%rsi        # 4093d <warn@@Base+0x33f06>
    ac45:	ff 15 2d f0 04 00    	call   *0x4f02d(%rip)        # 59c78 <warn@@Base+0x4d241>
    ac4b:	48 89 c7             	mov    %rax,%rdi
    ac4e:	e8 dd 11 03 00       	call   3be30 <warn@@Base+0x2f3f9>
    ac53:	f3 0f 1e fa          	endbr64 
    ac57:	41 54                	push   %r12
    ac59:	55                   	push   %rbp
    ac5a:	53                   	push   %rbx
    ac5b:	48 8b 6f 38          	mov    0x38(%rdi),%rbp
    ac5f:	48 89 f3             	mov    %rsi,%rbx
    ac62:	4c 8b 67 28          	mov    0x28(%rdi),%r12
    ac66:	48 89 ee             	mov    %rbp,%rsi
    ac69:	4c 89 e7             	mov    %r12,%rdi
    ac6c:	ff 15 4e f2 04 00    	call   *0x4f24e(%rip)        # 59ec0 <warn@@Base+0x4d489>
    ac72:	85 c0                	test   %eax,%eax
    ac74:	74 23                	je     ac99 <error@@Base+0x2691>
    ac76:	83 c0 04             	add    $0x4,%eax
    ac79:	83 e0 fc             	and    $0xfffffffc,%eax
    ac7c:	8d 50 04             	lea    0x4(%rax),%edx
    ac7f:	48 39 d5             	cmp    %rdx,%rbp
    ac82:	72 15                	jb     ac99 <error@@Base+0x2691>
    ac84:	89 c7                	mov    %eax,%edi
    ac86:	be 04 00 00 00       	mov    $0x4,%esi
    ac8b:	4c 01 e7             	add    %r12,%rdi
    ac8e:	ff 15 d4 10 05 00    	call   *0x510d4(%rip)        # 5bd68 <warn@@Base+0x4f331>
    ac94:	48 89 03             	mov    %rax,(%rbx)
    ac97:	eb 03                	jmp    ac9c <error@@Base+0x2694>
    ac99:	45 31 e4             	xor    %r12d,%r12d
    ac9c:	4c 89 e0             	mov    %r12,%rax
    ac9f:	5b                   	pop    %rbx
    aca0:	5d                   	pop    %rbp
    aca1:	41 5c                	pop    %r12
    aca3:	c3                   	ret    
    aca4:	f3 0f 1e fa          	endbr64 
    aca8:	41 54                	push   %r12
    acaa:	55                   	push   %rbp
    acab:	48 89 f5             	mov    %rsi,%rbp
    acae:	53                   	push   %rbx
    acaf:	48 8b 5f 38          	mov    0x38(%rdi),%rbx
    acb3:	4c 8b 67 28          	mov    0x28(%rdi),%r12
    acb7:	48 89 de             	mov    %rbx,%rsi
    acba:	4c 89 e7             	mov    %r12,%rdi
    acbd:	ff 15 fd f1 04 00    	call   *0x4f1fd(%rip)        # 59ec0 <warn@@Base+0x4d489>
    acc3:	48 85 c0             	test   %rax,%rax
    acc6:	74 1e                	je     ace6 <error@@Base+0x26de>
    acc8:	48 ff c0             	inc    %rax
    accb:	48 39 c3             	cmp    %rax,%rbx
    acce:	76 16                	jbe    ace6 <error@@Base+0x26de>
    acd0:	48 29 c3             	sub    %rax,%rbx
    acd3:	48 83 fb 13          	cmp    $0x13,%rbx
    acd7:	76 0d                	jbe    ace6 <error@@Base+0x26de>
    acd9:	4c 01 e0             	add    %r12,%rax
    acdc:	48 89 5d 00          	mov    %rbx,0x0(%rbp)
    ace0:	48 89 45 08          	mov    %rax,0x8(%rbp)
    ace4:	eb 03                	jmp    ace9 <error@@Base+0x26e1>
    ace6:	45 31 e4             	xor    %r12d,%r12d
    ace9:	4c 89 e0             	mov    %r12,%rax
    acec:	5b                   	pop    %rbx
    aced:	5d                   	pop    %rbp
    acee:	41 5c                	pop    %r12
    acf0:	c3                   	ret    
    acf1:	48 8b 2f             	mov    (%rdi),%rbp
    acf4:	ba 05 00 00 00       	mov    $0x5,%edx
    acf9:	31 ff                	xor    %edi,%edi
    acfb:	48 8d 35 36 79 03 00 	lea    0x37936(%rip),%rsi        # 42638 <warn@@Base+0x35c01>
    ad02:	ff 15 70 ef 04 00    	call   *0x4ef70(%rip)        # 59c78 <warn@@Base+0x4d241>
    ad08:	48 89 c7             	mov    %rax,%rdi
    ad0b:	48 89 ee             	mov    %rbp,%rsi
    ad0e:	31 c0                	xor    %eax,%eax
    ad10:	67 e8 21 1d 00 00    	addr32 call ca37 <warn@@Base>
    ad16:	e9 52 0a 03 00       	jmp    3b76d <warn@@Base+0x2ed36>
    ad1b:	4c 8d 1d 5e d9 04 00 	lea    0x4d95e(%rip),%r11        # 58680 <warn@@Base+0x4bc49>
    ad22:	48 8d 1d 87 35 03 00 	lea    0x33587(%rip),%rbx        # 3e2b0 <warn@@Base+0x31879>
    ad29:	c7 05 9d 0e 05 00 65 	movl   $0x65,0x50e9d(%rip)        # 5bbd0 <warn@@Base+0x4f199>
    ad30:	00 00 00 
    ad33:	4c 89 1d 9e 0e 05 00 	mov    %r11,0x50e9e(%rip)        # 5bbd8 <warn@@Base+0x4f1a1>
    ad3a:	48 89 1d 9f 0e 05 00 	mov    %rbx,0x50e9f(%rip)        # 5bbe0 <warn@@Base+0x4f1a9>
    ad41:	e9 12 0a 03 00       	jmp    3b758 <warn@@Base+0x2ed21>
    ad46:	48 8d 3d 33 d5 04 00 	lea    0x4d533(%rip),%rdi        # 58280 <warn@@Base+0x4b849>
    ad4d:	4c 8d 05 5c 35 03 00 	lea    0x3355c(%rip),%r8        # 3e2b0 <warn@@Base+0x31879>
    ad54:	c7 05 72 0e 05 00 80 	movl   $0x80,0x50e72(%rip)        # 5bbd0 <warn@@Base+0x4f199>
    ad5b:	00 00 00 
    ad5e:	48 89 3d 73 0e 05 00 	mov    %rdi,0x50e73(%rip)        # 5bbd8 <warn@@Base+0x4f1a1>
    ad65:	4c 89 05 74 0e 05 00 	mov    %r8,0x50e74(%rip)        # 5bbe0 <warn@@Base+0x4f1a9>
    ad6c:	e9 e7 09 03 00       	jmp    3b758 <warn@@Base+0x2ed21>
    ad71:	b8 04 00 00 00       	mov    $0x4,%eax
    ad76:	e9 7c 09 03 00       	jmp    3b6f7 <warn@@Base+0x2ecc0>
    ad7b:	4c 8d 0d 5e d2 04 00 	lea    0x4d25e(%rip),%r9        # 57fe0 <warn@@Base+0x4b5a9>
    ad82:	4c 8d 15 27 35 03 00 	lea    0x33527(%rip),%r10        # 3e2b0 <warn@@Base+0x31879>
    ad89:	c7 05 3d 0e 05 00 54 	movl   $0x54,0x50e3d(%rip)        # 5bbd0 <warn@@Base+0x4f199>
    ad90:	00 00 00 
    ad93:	4c 89 0d 3e 0e 05 00 	mov    %r9,0x50e3e(%rip)        # 5bbd8 <warn@@Base+0x4f1a1>
    ad9a:	4c 89 15 3f 0e 05 00 	mov    %r10,0x50e3f(%rip)        # 5bbe0 <warn@@Base+0x4f1a9>
    ada1:	e9 b2 09 03 00       	jmp    3b758 <warn@@Base+0x2ed21>
    ada6:	48 8d 05 ee 23 01 00 	lea    0x123ee(%rip),%rax        # 1d19b <warn@@Base+0x10764>
    adad:	48 c7 05 20 0e 05 00 	movq   $0x0,0x50e20(%rip)        # 5bbd8 <warn@@Base+0x4f1a1>
    adb4:	00 00 00 00 
    adb8:	c7 05 0e 0e 05 00 00 	movl   $0x2000,0x50e0e(%rip)        # 5bbd0 <warn@@Base+0x4f199>
    adbf:	20 00 00 
    adc2:	48 89 05 17 0e 05 00 	mov    %rax,0x50e17(%rip)        # 5bbe0 <warn@@Base+0x4f1a9>
    adc9:	e9 8a 09 03 00       	jmp    3b758 <warn@@Base+0x2ed21>
    adce:	4c 8b 0d 8b 0f 05 00 	mov    0x50f8b(%rip),%r9        # 5bd60 <warn@@Base+0x4f329>
    add5:	4d 85 c9             	test   %r9,%r9
    add8:	74 0b                	je     ade5 <error@@Base+0x27dd>
    adda:	49 39 29             	cmp    %rbp,(%r9)
    addd:	74 0b                	je     adea <error@@Base+0x27e2>
    addf:	4d 8b 49 10          	mov    0x10(%r9),%r9
    ade3:	eb f0                	jmp    add5 <error@@Base+0x27cd>
    ade5:	e9 28 0a 03 00       	jmp    3b812 <warn@@Base+0x2eddb>
    adea:	4c 6b d3 70          	imul   $0x70,%rbx,%r10
    adee:	4d 8b 59 08          	mov    0x8(%r9),%r11
    adf2:	4e 89 5c 10 20       	mov    %r11,0x20(%rax,%r10,1)
    adf7:	e9 16 0a 03 00       	jmp    3b812 <warn@@Base+0x2eddb>
    adfc:	f3 0f 1e fa          	endbr64 
    ae00:	50                   	push   %rax
    ae01:	e8 5a 0a 03 00       	call   3b860 <warn@@Base+0x2ee29>
    ae06:	5a                   	pop    %rdx
    ae07:	48 85 c0             	test   %rax,%rax
    ae0a:	0f 95 c0             	setne  %al
    ae0d:	c3                   	ret    
    ae0e:	f3 0f 1e fa          	endbr64 
    ae12:	f6 46 2a 10          	testb  $0x10,0x2a(%rsi)
    ae16:	75 2a                	jne    ae42 <error@@Base+0x283a>
    ae18:	55                   	push   %rbp
    ae19:	48 89 f7             	mov    %rsi,%rdi
    ae1c:	48 89 d5             	mov    %rdx,%rbp
    ae1f:	53                   	push   %rbx
    ae20:	48 89 f3             	mov    %rsi,%rbx
    ae23:	51                   	push   %rcx
    ae24:	e8 e7 4d 02 00       	call   2fc10 <warn@@Base+0x231d9>
    ae29:	84 c0                	test   %al,%al
    ae2b:	74 11                	je     ae3e <error@@Base+0x2836>
    ae2d:	48 8b 3b             	mov    (%rbx),%rdi
    ae30:	ff 15 9a ed 04 00    	call   *0x4ed9a(%rip)        # 59bd0 <warn@@Base+0x4d199>
    ae36:	39 45 00             	cmp    %eax,0x0(%rbp)
    ae39:	7d 03                	jge    ae3e <error@@Base+0x2836>
    ae3b:	89 45 00             	mov    %eax,0x0(%rbp)
    ae3e:	58                   	pop    %rax
    ae3f:	5b                   	pop    %rbx
    ae40:	5d                   	pop    %rbp
    ae41:	c3                   	ret    
    ae42:	c3                   	ret    
    ae43:	49 8b 7d 00          	mov    0x0(%r13),%rdi
    ae47:	e8 e4 0f 03 00       	call   3be30 <warn@@Base+0x2f3f9>
    ae4c:	48 8b 35 c5 2f 05 00 	mov    0x52fc5(%rip),%rsi        # 5de18 <warn@@Base+0x513e1>
    ae53:	e9 d8 67 02 00       	jmp    31630 <warn@@Base+0x24bf9>
    ae58:	49 83 ec 01          	sub    $0x1,%r12
    ae5c:	e9 ec 67 02 00       	jmp    3164d <warn@@Base+0x24c16>
    ae61:	bf 80 03 00 00       	mov    $0x380,%edi
    ae66:	ff 15 bc ef 04 00    	call   *0x4efbc(%rip)        # 59e28 <warn@@Base+0x4d3f1>
    ae6c:	49 8b 75 08          	mov    0x8(%r13),%rsi
    ae70:	48 8d 78 08          	lea    0x8(%rax),%rdi
    ae74:	48 89 c1             	mov    %rax,%rcx
    ae77:	48 8b 16             	mov    (%rsi),%rdx
    ae7a:	48 83 e7 f8          	and    $0xfffffffffffffff8,%rdi
    ae7e:	48 29 f9             	sub    %rdi,%rcx
    ae81:	48 89 10             	mov    %rdx,(%rax)
    ae84:	4c 8b 86 78 03 00 00 	mov    0x378(%rsi),%r8
    ae8b:	48 29 ce             	sub    %rcx,%rsi
    ae8e:	8d 89 80 03 00 00    	lea    0x380(%rcx),%ecx
    ae94:	c1 e9 03             	shr    $0x3,%ecx
    ae97:	4c 89 80 78 03 00 00 	mov    %r8,0x378(%rax)
    ae9e:	f3 48 a5             	rep movsq %ds:(%rsi),%es:(%rdi)
    aea1:	49 89 45 08          	mov    %rax,0x8(%r13)
    aea5:	44 8b 0d 70 f1 04 00 	mov    0x4f170(%rip),%r9d        # 5a01c <warn@@Base+0x4d5e5>
    aeac:	44 89 48 0c          	mov    %r9d,0xc(%rax)
    aeb0:	e9 dd 68 02 00       	jmp    31792 <warn@@Base+0x24d5b>
    aeb5:	c7 44 24 68 00 00 00 	movl   $0x0,0x68(%rsp)
    aebc:	00 
    aebd:	c7 84 24 00 01 00 00 	movl   $0x0,0x100(%rsp)
    aec4:	00 00 00 00 
    aec8:	e9 99 69 02 00       	jmp    31866 <warn@@Base+0x24e2f>
    aecd:	49 8b 7d 00          	mov    0x0(%r13),%rdi
    aed1:	e8 5a 0f 03 00       	call   3be30 <warn@@Base+0x2f3f9>
    aed6:	c7 44 24 68 02 00 00 	movl   $0x2,0x68(%rsp)
    aedd:	00 
    aede:	e9 83 69 02 00       	jmp    31866 <warn@@Base+0x24e2f>
    aee3:	4c 89 ef             	mov    %r13,%rdi
    aee6:	ff 15 ec ed 04 00    	call   *0x4edec(%rip)        # 59cd8 <warn@@Base+0x4d2a1>
    aeec:	31 f6                	xor    %esi,%esi
    aeee:	89 c7                	mov    %eax,%edi
    aef0:	ff 15 4a ec 04 00    	call   *0x4ec4a(%rip)        # 59b40 <warn@@Base+0x4d109>
    aef6:	ba 05 00 00 00       	mov    $0x5,%edx
    aefb:	48 8d 35 6e 77 03 00 	lea    0x3776e(%rip),%rsi        # 42670 <warn@@Base+0x35c39>
    af02:	31 ff                	xor    %edi,%edi
    af04:	49 89 c5             	mov    %rax,%r13
    af07:	ff 15 6b ed 04 00    	call   *0x4ed6b(%rip)        # 59c78 <warn@@Base+0x4d241>
    af0d:	4c 89 ee             	mov    %r13,%rsi
    af10:	48 89 c7             	mov    %rax,%rdi
    af13:	31 c0                	xor    %eax,%eax
    af15:	e8 d6 f8 02 00       	call   3a7f0 <warn@@Base+0x2ddb9>
    af1a:	c7 05 60 0e 05 00 01 	movl   $0x1,0x50e60(%rip)        # 5bd84 <warn@@Base+0x4f34d>
    af21:	00 00 00 
    af24:	e9 d3 69 02 00       	jmp    318fc <warn@@Base+0x24ec5>
    af29:	48 8b 35 38 ed 04 00 	mov    0x4ed38(%rip),%rsi        # 59c68 <warn@@Base+0x4d231>
    af30:	48 8b 43 20          	mov    0x20(%rbx),%rax
    af34:	49 83 ec 01          	sub    $0x1,%r12
    af38:	48 81 c6 28 01 00 00 	add    $0x128,%rsi
    af3f:	48 39 f0             	cmp    %rsi,%rax
    af42:	0f 84 05 67 02 00    	je     3164d <warn@@Base+0x24c16>
    af48:	e9 4b 67 02 00       	jmp    31698 <warn@@Base+0x24c61>
    af4d:	48 8b 2d 04 30 05 00 	mov    0x53004(%rip),%rbp        # 5df58 <warn@@Base+0x51521>
    af54:	48 8d 35 fe 59 03 00 	lea    0x359fe(%rip),%rsi        # 40959 <warn@@Base+0x33f22>
    af5b:	31 ff                	xor    %edi,%edi
    af5d:	ba 05 00 00 00       	mov    $0x5,%edx
    af62:	ff 15 10 ed 04 00    	call   *0x4ed10(%rip)        # 59c78 <warn@@Base+0x4d241>
    af68:	48 89 c7             	mov    %rax,%rdi
    af6b:	48 89 ee             	mov    %rbp,%rsi
    af6e:	31 c0                	xor    %eax,%eax
    af70:	e8 5b f7 02 00       	call   3a6d0 <warn@@Base+0x2dc99>
    af75:	5b                   	pop    %rbx
    af76:	48 8d 3d 98 55 03 00 	lea    0x35598(%rip),%rdi        # 40515 <warn@@Base+0x33ade>
    af7d:	5d                   	pop    %rbp
    af7e:	41 5c                	pop    %r12
    af80:	41 5d                	pop    %r13
    af82:	41 5e                	pop    %r14
    af84:	ff 25 26 ef 04 00    	jmp    *0x4ef26(%rip)        # 59eb0 <warn@@Base+0x4d479>
    af8a:	bf 0a 00 00 00       	mov    $0xa,%edi
    af8f:	ff 15 ab ee 04 00    	call   *0x4eeab(%rip)        # 59e40 <warn@@Base+0x4d409>
    af95:	49 8b 3c 24          	mov    (%r12),%rdi
    af99:	e8 f2 28 02 00       	call   2d890 <warn@@Base+0x20e59>
    af9e:	ba 05 00 00 00       	mov    $0x5,%edx
    afa3:	48 8d 35 ea 59 03 00 	lea    0x359ea(%rip),%rsi        # 40994 <warn@@Base+0x33f5d>
    afaa:	31 ff                	xor    %edi,%edi
    afac:	48 89 c5             	mov    %rax,%rbp
    afaf:	ff 15 c3 ec 04 00    	call   *0x4ecc3(%rip)        # 59c78 <warn@@Base+0x4d241>
    afb5:	48 89 ee             	mov    %rbp,%rsi
    afb8:	48 89 c7             	mov    %rax,%rdi
    afbb:	31 c0                	xor    %eax,%eax
    afbd:	e8 2e f8 02 00       	call   3a7f0 <warn@@Base+0x2ddb9>
    afc2:	31 ff                	xor    %edi,%edi
    afc4:	ba 05 00 00 00       	mov    $0x5,%edx
    afc9:	48 8d 35 6d 59 03 00 	lea    0x3596d(%rip),%rsi        # 4093d <warn@@Base+0x33f06>
    afd0:	ff 15 a2 ec 04 00    	call   *0x4eca2(%rip)        # 59c78 <warn@@Base+0x4d241>
    afd6:	48 89 c7             	mov    %rax,%rdi
    afd9:	e8 52 0e 03 00       	call   3be30 <warn@@Base+0x2f3f9>
    afde:	48 8d 3d 30 55 03 00 	lea    0x35530(%rip),%rdi        # 40515 <warn@@Base+0x33ade>
    afe5:	ff 15 c5 ee 04 00    	call   *0x4eec5(%rip)        # 59eb0 <warn@@Base+0x4d479>
    afeb:	e9 8e 09 03 00       	jmp    3b97e <warn@@Base+0x2ef47>
    aff0:	f3 0f 1e fa          	endbr64 
    aff4:	41 57                	push   %r15
    aff6:	41 56                	push   %r14
    aff8:	41 55                	push   %r13
    affa:	45 31 ed             	xor    %r13d,%r13d
    affd:	41 54                	push   %r12
    afff:	55                   	push   %rbp
    b000:	48 89 fd             	mov    %rdi,%rbp
    b003:	53                   	push   %rbx
    b004:	48 83 ec 18          	sub    $0x18,%rsp
    b008:	48 89 74 24 08       	mov    %rsi,0x8(%rsp)
    b00d:	e8 4e 08 03 00       	call   3b860 <warn@@Base+0x2ee29>
    b012:	48 85 c0             	test   %rax,%rax
    b015:	0f 84 ec 00 00 00    	je     b107 <error@@Base+0x2aff>
    b01b:	48 89 ef             	mov    %rbp,%rdi
    b01e:	49 89 c4             	mov    %rax,%r12
    b021:	48 8d 35 89 59 03 00 	lea    0x35989(%rip),%rsi        # 409b1 <warn@@Base+0x33f7a>
    b028:	31 db                	xor    %ebx,%ebx
    b02a:	ff 15 38 ed 04 00    	call   *0x4ed38(%rip)        # 59d68 <warn@@Base+0x4d331>
    b030:	4c 8d 3d c9 7d 03 00 	lea    0x37dc9(%rip),%r15        # 42e00 <warn@@Base+0x363c9>
    b037:	48 8d 3d a2 0d 05 00 	lea    0x50da2(%rip),%rdi        # 5bde0 <warn@@Base+0x4f3a9>
    b03e:	49 89 c6             	mov    %rax,%r14
    b041:	48 85 c0             	test   %rax,%rax
    b044:	75 32                	jne    b078 <error@@Base+0x2a70>
    b046:	4c 89 e7             	mov    %r12,%rdi
    b049:	ff 15 d9 eb 04 00    	call   *0x4ebd9(%rip)        # 59c28 <warn@@Base+0x4d1f1>
    b04f:	31 ff                	xor    %edi,%edi
    b051:	ba 05 00 00 00       	mov    $0x5,%edx
    b056:	48 8d 35 3b 76 03 00 	lea    0x3763b(%rip),%rsi        # 42698 <warn@@Base+0x35c61>
    b05d:	ff 15 15 ec 04 00    	call   *0x4ec15(%rip)        # 59c78 <warn@@Base+0x4d241>
    b063:	48 89 ee             	mov    %rbp,%rsi
    b066:	48 89 c7             	mov    %rax,%rdi
    b069:	31 c0                	xor    %eax,%eax
    b06b:	67 e8 c6 19 00 00    	addr32 call ca37 <warn@@Base>
    b071:	e9 91 00 00 00       	jmp    b107 <error@@Base+0x2aff>
    b076:	f7 d3                	not    %ebx
    b078:	4c 89 f1             	mov    %r14,%rcx
    b07b:	ba 00 20 00 00       	mov    $0x2000,%edx
    b080:	be 01 00 00 00       	mov    $0x1,%esi
    b085:	ff 15 05 ee 04 00    	call   *0x4ee05(%rip)        # 59e90 <warn@@Base+0x4d459>
    b08b:	48 8d 3d 4e 0d 05 00 	lea    0x50d4e(%rip),%rdi        # 5bde0 <warn@@Base+0x4f3a9>
    b092:	41 b8 ff ff ff ff    	mov    $0xffffffff,%r8d
    b098:	48 85 c0             	test   %rax,%rax
    b09b:	74 26                	je     b0c3 <error@@Base+0x2abb>
    b09d:	4c 31 c3             	xor    %r8,%rbx
    b0a0:	48 01 f8             	add    %rdi,%rax
    b0a3:	48 8d 15 36 0d 05 00 	lea    0x50d36(%rip),%rdx        # 5bde0 <warn@@Base+0x4f3a9>
    b0aa:	48 39 d0             	cmp    %rdx,%rax
    b0ad:	76 c7                	jbe    b076 <error@@Base+0x2a6e>
    b0af:	8a 0a                	mov    (%rdx),%cl
    b0b1:	48 ff c2             	inc    %rdx
    b0b4:	31 d9                	xor    %ebx,%ecx
    b0b6:	48 c1 eb 08          	shr    $0x8,%rbx
    b0ba:	0f b6 f1             	movzbl %cl,%esi
    b0bd:	49 33 1c f7          	xor    (%r15,%rsi,8),%rbx
    b0c1:	eb e7                	jmp    b0aa <error@@Base+0x2aa2>
    b0c3:	4c 89 f7             	mov    %r14,%rdi
    b0c6:	41 b5 01             	mov    $0x1,%r13b
    b0c9:	ff 15 21 ec 04 00    	call   *0x4ec21(%rip)        # 59cf0 <warn@@Base+0x4d2b9>
    b0cf:	48 8b 44 24 08       	mov    0x8(%rsp),%rax
    b0d4:	48 39 18             	cmp    %rbx,(%rax)
    b0d7:	74 2e                	je     b107 <error@@Base+0x2aff>
    b0d9:	4c 89 e7             	mov    %r12,%rdi
    b0dc:	45 31 ed             	xor    %r13d,%r13d
    b0df:	ff 15 43 eb 04 00    	call   *0x4eb43(%rip)        # 59c28 <warn@@Base+0x4d1f1>
    b0e5:	ba 05 00 00 00       	mov    $0x5,%edx
    b0ea:	48 8d 35 d7 75 03 00 	lea    0x375d7(%rip),%rsi        # 426c8 <warn@@Base+0x35c91>
    b0f1:	31 ff                	xor    %edi,%edi
    b0f3:	ff 15 7f eb 04 00    	call   *0x4eb7f(%rip)        # 59c78 <warn@@Base+0x4d241>
    b0f9:	48 89 ee             	mov    %rbp,%rsi
    b0fc:	48 89 c7             	mov    %rax,%rdi
    b0ff:	31 c0                	xor    %eax,%eax
    b101:	67 e8 30 19 00 00    	addr32 call ca37 <warn@@Base>
    b107:	48 83 c4 18          	add    $0x18,%rsp
    b10b:	44 89 e8             	mov    %r13d,%eax
    b10e:	5b                   	pop    %rbx
    b10f:	5d                   	pop    %rbp
    b110:	41 5c                	pop    %r12
    b112:	41 5d                	pop    %r13
    b114:	41 5e                	pop    %r14
    b116:	41 5f                	pop    %r15
    b118:	c3                   	ret    
    b119:	41 80 38 00          	cmpb   $0x0,(%r8)
    b11d:	0f 84 20 09 03 00    	je     3ba43 <warn@@Base+0x2f00c>
    b123:	4c 89 c7             	mov    %r8,%rdi
    b126:	4c 89 04 24          	mov    %r8,(%rsp)
    b12a:	e8 61 27 02 00       	call   2d890 <warn@@Base+0x20e59>
    b12f:	48 8b 14 24          	mov    (%rsp),%rdx
    b133:	48 39 c2             	cmp    %rax,%rdx
    b136:	48 89 54 24 08       	mov    %rdx,0x8(%rsp)
    b13b:	49 8b 14 dc          	mov    (%r12,%rbx,8),%rdx
    b13f:	0f 84 0c 01 00 00    	je     b251 <error@@Base+0x2c49>
    b145:	48 8b 3d dc e9 04 00 	mov    0x4e9dc(%rip),%rdi        # 59b28 <warn@@Base+0x4d0f1>
    b14c:	4c 8b 55 08          	mov    0x8(%rbp),%r10
    b150:	b9 02 00 00 00       	mov    $0x2,%ecx
    b155:	48 89 42 08          	mov    %rax,0x8(%rdx)
    b159:	48 89 04 24          	mov    %rax,(%rsp)
    b15d:	48 8b 37             	mov    (%rdi),%rsi
    b160:	48 89 ef             	mov    %rbp,%rdi
    b163:	41 ff 92 10 02 00 00 	call   *0x210(%r10)
    b16a:	48 8b 0c 24          	mov    (%rsp),%rcx
    b16e:	48 85 c9             	test   %rcx,%rcx
    b171:	0f 84 e8 08 03 00    	je     3ba5f <warn@@Base+0x2f028>
    b177:	4d 8b 1c dc          	mov    (%r12,%rbx,8),%r11
    b17b:	4c 8b 74 24 08       	mov    0x8(%rsp),%r14
    b180:	4d 89 73 08          	mov    %r14,0x8(%r11)
    b184:	e9 d6 08 03 00       	jmp    3ba5f <warn@@Base+0x2f028>
    b189:	31 ff                	xor    %edi,%edi
    b18b:	ba 05 00 00 00       	mov    $0x5,%edx
    b190:	48 8d 35 79 75 03 00 	lea    0x37579(%rip),%rsi        # 42710 <warn@@Base+0x35cd9>
    b197:	ff 15 db ea 04 00    	call   *0x4eadb(%rip)        # 59c78 <warn@@Base+0x4d241>
    b19d:	48 89 da             	mov    %rbx,%rdx
    b1a0:	bf 01 00 00 00       	mov    $0x1,%edi
    b1a5:	48 89 c6             	mov    %rax,%rsi
    b1a8:	31 c0                	xor    %eax,%eax
    b1aa:	ff 15 58 e9 04 00    	call   *0x4e958(%rip)        # 59b08 <warn@@Base+0x4d0d1>
    b1b0:	e9 b5 08 03 00       	jmp    3ba6a <warn@@Base+0x2f033>
    b1b5:	4c 89 fe             	mov    %r15,%rsi
    b1b8:	31 ff                	xor    %edi,%edi
    b1ba:	ba 05 00 00 00       	mov    $0x5,%edx
    b1bf:	ff 15 b3 ea 04 00    	call   *0x4eab3(%rip)        # 59c78 <warn@@Base+0x4d241>
    b1c5:	48 89 da             	mov    %rbx,%rdx
    b1c8:	bf 01 00 00 00       	mov    $0x1,%edi
    b1cd:	48 89 c6             	mov    %rax,%rsi
    b1d0:	31 c0                	xor    %eax,%eax
    b1d2:	ff 15 30 e9 04 00    	call   *0x4e930(%rip)        # 59b08 <warn@@Base+0x4d0d1>
    b1d8:	e9 8d 08 03 00       	jmp    3ba6a <warn@@Base+0x2f033>
    b1dd:	4d 85 c0             	test   %r8,%r8
    b1e0:	0f 84 5d 08 03 00    	je     3ba43 <warn@@Base+0x2f00c>
    b1e6:	41 80 38 00          	cmpb   $0x0,(%r8)
    b1ea:	0f 84 53 08 03 00    	je     3ba43 <warn@@Base+0x2f00c>
    b1f0:	8b 15 3a ee 04 00    	mov    0x4ee3a(%rip),%edx        # 5a030 <warn@@Base+0x4d5f9>
    b1f6:	4c 89 44 24 08       	mov    %r8,0x8(%rsp)
    b1fb:	4c 89 c6             	mov    %r8,%rsi
    b1fe:	48 89 ef             	mov    %rbp,%rdi
    b201:	ff 15 19 ea 04 00    	call   *0x4ea19(%rip)        # 59c20 <warn@@Base+0x4d1e9>
    b207:	49 8b 14 dc          	mov    (%r12,%rbx,8),%rdx
    b20b:	48 85 c0             	test   %rax,%rax
    b20e:	74 63                	je     b273 <error@@Base+0x2c6b>
    b210:	4c 8b 5d 08          	mov    0x8(%rbp),%r11
    b214:	48 8b 3d 0d e9 04 00 	mov    0x4e90d(%rip),%rdi        # 59b28 <warn@@Base+0x4d0f1>
    b21b:	48 89 42 08          	mov    %rax,0x8(%rdx)
    b21f:	b9 02 00 00 00       	mov    $0x2,%ecx
    b224:	48 89 04 24          	mov    %rax,(%rsp)
    b228:	48 8b 37             	mov    (%rdi),%rsi
    b22b:	48 89 ef             	mov    %rbp,%rdi
    b22e:	41 ff 93 10 02 00 00 	call   *0x210(%r11)
    b235:	49 8b 2c dc          	mov    (%r12,%rbx,8),%rbp
    b239:	48 8b 54 24 08       	mov    0x8(%rsp),%rdx
    b23e:	48 8b 3c 24          	mov    (%rsp),%rdi
    b242:	48 89 55 08          	mov    %rdx,0x8(%rbp)
    b246:	ff 15 2c eb 04 00    	call   *0x4eb2c(%rip)        # 59d78 <warn@@Base+0x4d341>
    b24c:	e9 0e 08 03 00       	jmp    3ba5f <warn@@Base+0x2f028>
    b251:	4c 8b 4d 08          	mov    0x8(%rbp),%r9
    b255:	48 8b 35 cc e8 04 00 	mov    0x4e8cc(%rip),%rsi        # 59b28 <warn@@Base+0x4d0f1>
    b25c:	b9 02 00 00 00       	mov    $0x2,%ecx
    b261:	48 89 ef             	mov    %rbp,%rdi
    b264:	48 8b 36             	mov    (%rsi),%rsi
    b267:	41 ff 91 10 02 00 00 	call   *0x210(%r9)
    b26e:	e9 ec 07 03 00       	jmp    3ba5f <warn@@Base+0x2f028>
    b273:	4c 8b 55 08          	mov    0x8(%rbp),%r10
    b277:	48 8b 35 aa e8 04 00 	mov    0x4e8aa(%rip),%rsi        # 59b28 <warn@@Base+0x4d0f1>
    b27e:	b9 02 00 00 00       	mov    $0x2,%ecx
    b283:	48 89 ef             	mov    %rbp,%rdi
    b286:	48 8b 36             	mov    (%rsi),%rsi
    b289:	41 ff 92 10 02 00 00 	call   *0x210(%r10)
    b290:	e9 ca 07 03 00       	jmp    3ba5f <warn@@Base+0x2f028>
    b295:	4c 8b 64 24 40       	mov    0x40(%rsp),%r12
    b29a:	c7 44 24 7c 00 00 00 	movl   $0x0,0x7c(%rsp)
    b2a1:	00 
    b2a2:	49 83 7c 24 30 00    	cmpq   $0x0,0x30(%r12)
    b2a8:	0f 85 68 70 02 00    	jne    32316 <warn@@Base+0x258df>
    b2ae:	b8 0a 00 00 00       	mov    $0xa,%eax
    b2b3:	8d 48 ff             	lea    -0x1(%rax),%ecx
    b2b6:	e9 54 70 02 00       	jmp    3230f <warn@@Base+0x258d8>
    b2bb:	45 31 db             	xor    %r11d,%r11d
    b2be:	e9 a3 82 02 00       	jmp    33566 <warn@@Base+0x26b2f>
    b2c3:	41 83 7d 3c 00       	cmpl   $0x0,0x3c(%r13)
    b2c8:	0f 84 61 7d 02 00    	je     3302f <warn@@Base+0x265f8>
    b2ce:	41 ba 01 00 00 00    	mov    $0x1,%r10d
    b2d4:	e9 37 7e 02 00       	jmp    33110 <warn@@Base+0x266d9>
    b2d9:	48 8b 6c 24 40       	mov    0x40(%rsp),%rbp
    b2de:	c7 44 24 7c 00 00 00 	movl   $0x0,0x7c(%rsp)
    b2e5:	00 
    b2e6:	48 83 7d 30 00       	cmpq   $0x0,0x30(%rbp)
    b2eb:	0f 85 25 70 02 00    	jne    32316 <warn@@Base+0x258df>
    b2f1:	b8 07 00 00 00       	mov    $0x7,%eax
    b2f6:	eb bb                	jmp    b2b3 <error@@Base+0x2cab>
    b2f8:	4d 8b 6d 00          	mov    0x0(%r13),%r13
    b2fc:	e9 d3 7c 02 00       	jmp    32fd4 <warn@@Base+0x2659d>
    b301:	48 8b ac 24 a0 00 00 	mov    0xa0(%rsp),%rbp
    b308:	00 
    b309:	48 8b 5d 20          	mov    0x20(%rbp),%rbx
    b30d:	48 8b 6d 10          	mov    0x10(%rbp),%rbp
    b311:	48 8b 5b 30          	mov    0x30(%rbx),%rbx
    b315:	e9 4b 6c 02 00       	jmp    31f65 <warn@@Base+0x2552e>
    b31a:	48 c7 84 24 d8 00 00 	movq   $0x0,0xd8(%rsp)
    b321:	00 00 00 00 00 
    b326:	e9 d3 69 02 00       	jmp    31cfe <warn@@Base+0x252c7>
    b32b:	48 8b b7 40 03 00 00 	mov    0x340(%rdi),%rsi
    b332:	41 b8 01 00 00 00    	mov    $0x1,%r8d
    b338:	0f b6 4e 0a          	movzbl 0xa(%rsi),%ecx
    b33c:	83 e9 01             	sub    $0x1,%ecx
    b33f:	49 d3 e0             	shl    %cl,%r8
    b342:	4c 89 84 24 d8 00 00 	mov    %r8,0xd8(%rsp)
    b349:	00 
    b34a:	e9 af 69 02 00       	jmp    31cfe <warn@@Base+0x252c7>
    b34f:	44 0f b6 9c 24 d3 00 	movzbl 0xd3(%rsp),%r11d
    b356:	00 00 
    b358:	44 88 5c 24 7b       	mov    %r11b,0x7b(%rsp)
    b35d:	e9 ac 6d 02 00       	jmp    3210e <warn@@Base+0x256d7>
    b362:	c1 ed 03             	shr    $0x3,%ebp
    b365:	83 e5 01             	and    $0x1,%ebp
    b368:	40 88 6c 24 7b       	mov    %bpl,0x7b(%rsp)
    b36d:	e9 9c 6d 02 00       	jmp    3210e <warn@@Base+0x256d7>
    b372:	4c 8b 9c 24 e8 00 00 	mov    0xe8(%rsp),%r11
    b379:	00 
    b37a:	41 83 ca ff          	or     $0xffffffff,%r10d
    b37e:	45 8b 43 30          	mov    0x30(%r11),%r8d
    b382:	4d 8b 1b             	mov    (%r11),%r11
    b385:	45 39 c2             	cmp    %r8d,%r10d
    b388:	45 0f 4c d0          	cmovl  %r8d,%r10d
    b38c:	4d 85 db             	test   %r11,%r11
    b38f:	75 ed                	jne    b37e <error@@Base+0x2d76>
    b391:	41 8d 72 01          	lea    0x1(%r10),%esi
    b395:	44 89 94 24 f8 00 00 	mov    %r10d,0xf8(%rsp)
    b39c:	00 
    b39d:	44 8d 0c 76          	lea    (%rsi,%rsi,2),%r9d
    b3a1:	41 83 c1 01          	add    $0x1,%r9d
    b3a5:	4d 63 e1             	movslq %r9d,%r12
    b3a8:	4c 89 e7             	mov    %r12,%rdi
    b3ab:	ff 15 77 ea 04 00    	call   *0x4ea77(%rip)        # 59e28 <warn@@Base+0x4d3f1>
    b3b1:	4c 89 e7             	mov    %r12,%rdi
    b3b4:	48 89 84 24 88 00 00 	mov    %rax,0x88(%rsp)
    b3bb:	00 
    b3bc:	42 c6 44 20 ff 00    	movb   $0x0,-0x1(%rax,%r12,1)
    b3c2:	ff 15 60 ea 04 00    	call   *0x4ea60(%rip)        # 59e28 <warn@@Base+0x4d3f1>
    b3c8:	48 89 84 24 e8 00 00 	mov    %rax,0xe8(%rsp)
    b3cf:	00 
    b3d0:	42 c6 44 20 ff 00    	movb   $0x0,-0x1(%rax,%r12,1)
    b3d6:	e9 72 6f 02 00       	jmp    3234d <warn@@Base+0x25916>
    b3db:	8b 74 24 30          	mov    0x30(%rsp),%esi
    b3df:	89 74 24 38          	mov    %esi,0x38(%rsp)
    b3e3:	45 85 ed             	test   %r13d,%r13d
    b3e6:	0f 8f 2b 75 02 00    	jg     32917 <warn@@Base+0x25ee0>
    b3ec:	80 7c 24 7b 00       	cmpb   $0x0,0x7b(%rsp)
    b3f1:	74 3d                	je     b430 <error@@Base+0x2e28>
    b3f3:	48 83 bc 24 78 01 00 	cmpq   $0x0,0x178(%rsp)
    b3fa:	00 00 
    b3fc:	c7 44 24 38 00 00 00 	movl   $0x0,0x38(%rsp)
    b403:	00 
    b404:	c7 44 24 08 00 00 00 	movl   $0x0,0x8(%rsp)
    b40b:	00 
    b40c:	74 55                	je     b463 <error@@Base+0x2e5b>
    b40e:	e9 e3 73 02 00       	jmp    327f6 <warn@@Base+0x25dbf>
    b413:	48 8b 7c 24 40       	mov    0x40(%rsp),%rdi
    b418:	c7 44 24 7c 00 00 00 	movl   $0x0,0x7c(%rsp)
    b41f:	00 
    b420:	48 83 7f 30 00       	cmpq   $0x0,0x30(%rdi)
    b425:	0f 85 eb 6e 02 00    	jne    32316 <warn@@Base+0x258df>
    b42b:	e9 83 fe ff ff       	jmp    b2b3 <error@@Base+0x2cab>
    b430:	c7 44 24 38 00 00 00 	movl   $0x0,0x38(%rsp)
    b437:	00 
    b438:	c7 44 24 08 00 00 00 	movl   $0x0,0x8(%rsp)
    b43f:	00 
    b440:	48 8d 94 24 70 02 00 	lea    0x270(%rsp),%rdx
    b447:	00 
    b448:	48 8d 35 64 b3 03 00 	lea    0x3b364(%rip),%rsi        # 467b3 <warn@@Base+0x39d7c>
    b44f:	bf 01 00 00 00       	mov    $0x1,%edi
    b454:	31 c0                	xor    %eax,%eax
    b456:	ff 15 ac e6 04 00    	call   *0x4e6ac(%rip)        # 59b08 <warn@@Base+0x4d0d1>
    b45c:	44 8b 2d 4d 09 05 00 	mov    0x5094d(%rip),%r13d        # 5bdb0 <warn@@Base+0x4f379>
    b463:	83 3d 46 07 05 00 00 	cmpl   $0x0,0x50746(%rip)        # 5bbb0 <warn@@Base+0x4f179>
    b46a:	0f 84 b7 73 02 00    	je     32827 <warn@@Base+0x25df0>
    b470:	45 85 ed             	test   %r13d,%r13d
    b473:	0f 8e c3 73 02 00    	jle    3283c <warn@@Base+0x25e05>
    b479:	44 8b 4c 24 38       	mov    0x38(%rsp),%r9d
    b47e:	4c 3b 4c 24 30       	cmp    0x30(%rsp),%r9
    b483:	0f 82 cd 7f 02 00    	jb     33456 <warn@@Base+0x26a1f>
    b489:	e9 ae 73 02 00       	jmp    3283c <warn@@Base+0x25e05>
    b48e:	48 8b 44 24 30       	mov    0x30(%rsp),%rax
    b493:	31 d2                	xor    %edx,%edx
    b495:	4d 89 f5             	mov    %r14,%r13
    b498:	48 f7 74 24 48       	divq   0x48(%rsp)
    b49d:	48 01 44 24 18       	add    %rax,0x18(%rsp)
    b4a2:	4c 8b 74 24 18       	mov    0x18(%rsp),%r14
    b4a7:	4c 3b 74 24 50       	cmp    0x50(%rsp),%r14
    b4ac:	0f 82 c1 6e 02 00    	jb     32373 <warn@@Base+0x2593c>
    b4b2:	e9 dc 73 02 00       	jmp    32893 <warn@@Base+0x25e5c>
    b4b7:	44 89 54 24 08       	mov    %r10d,0x8(%rsp)
    b4bc:	e9 ca 71 02 00       	jmp    3268b <warn@@Base+0x25c54>
    b4c1:	48 8d 35 17 51 03 00 	lea    0x35117(%rip),%rsi        # 405df <warn@@Base+0x33ba8>
    b4c8:	bf 01 00 00 00       	mov    $0x1,%edi
    b4cd:	31 c0                	xor    %eax,%eax
    b4cf:	ff 15 33 e6 04 00    	call   *0x4e633(%rip)        # 59b08 <warn@@Base+0x4d0d1>
    b4d5:	e9 66 ff ff ff       	jmp    b440 <error@@Base+0x2e38>
    b4da:	45 31 c9             	xor    %r9d,%r9d
    b4dd:	4c 89 74 24 68       	mov    %r14,0x68(%rsp)
    b4e2:	4d 89 ee             	mov    %r13,%r14
    b4e5:	45 89 e5             	mov    %r12d,%r13d
    b4e8:	49 89 dc             	mov    %rbx,%r12
    b4eb:	4c 89 cb             	mov    %r9,%rbx
    b4ee:	0f b6 54 1d 00       	movzbl 0x0(%rbp,%rbx,1),%edx
    b4f3:	4c 89 fe             	mov    %r15,%rsi
    b4f6:	bf 01 00 00 00       	mov    $0x1,%edi
    b4fb:	31 c0                	xor    %eax,%eax
    b4fd:	ff 15 05 e6 04 00    	call   *0x4e605(%rip)        # 59b08 <warn@@Base+0x4d0d1>
    b503:	48 83 c3 01          	add    $0x1,%rbx
    b507:	39 5c 24 08          	cmp    %ebx,0x8(%rsp)
    b50b:	77 e1                	ja     b4ee <error@@Base+0x2ee6>
    b50d:	4c 89 e3             	mov    %r12,%rbx
    b510:	45 89 ec             	mov    %r13d,%r12d
    b513:	4d 89 f5             	mov    %r14,%r13
    b516:	4c 8b 74 24 68       	mov    0x68(%rsp),%r14
    b51b:	e9 30 72 02 00       	jmp    32750 <warn@@Base+0x25d19>
    b520:	48 83 bc 24 78 01 00 	cmpq   $0x0,0x178(%rsp)
    b527:	00 00 
    b529:	75 37                	jne    b562 <error@@Base+0x2f5a>
    b52b:	85 db                	test   %ebx,%ebx
    b52d:	0f 88 60 73 02 00    	js     32893 <warn@@Base+0x25e5c>
    b533:	ba 05 00 00 00       	mov    $0x5,%edx
    b538:	48 8d 35 71 72 03 00 	lea    0x37271(%rip),%rsi        # 427b0 <warn@@Base+0x35d79>
    b53f:	31 ff                	xor    %edi,%edi
    b541:	ff 15 31 e7 04 00    	call   *0x4e731(%rip)        # 59c78 <warn@@Base+0x4d241>
    b547:	89 de                	mov    %ebx,%esi
    b549:	48 89 c7             	mov    %rax,%rdi
    b54c:	31 c0                	xor    %eax,%eax
    b54e:	e8 9d f2 02 00       	call   3a7f0 <warn@@Base+0x2ddb9>
    b553:	c7 05 27 08 05 00 01 	movl   $0x1,0x50827(%rip)        # 5bd84 <warn@@Base+0x4f34d>
    b55a:	00 00 00 
    b55d:	e9 31 73 02 00       	jmp    32893 <warn@@Base+0x25e5c>
    b562:	48 8b bc 24 70 01 00 	mov    0x170(%rsp),%rdi
    b569:	00 
    b56a:	ff 15 40 e9 04 00    	call   *0x4e940(%rip)        # 59eb0 <warn@@Base+0x4d479>
    b570:	eb b9                	jmp    b52b <error@@Base+0x2f23>
    b572:	44 8b 0d 97 29 05 00 	mov    0x52997(%rip),%r9d        # 5df10 <warn@@Base+0x514d9>
    b579:	44 0b 0d 28 29 05 00 	or     0x52928(%rip),%r9d        # 5dea8 <warn@@Base+0x51471>
    b580:	0f 84 00 01 00 00    	je     b686 <error@@Base+0x307e>
    b586:	83 3d b3 29 05 00 00 	cmpl   $0x0,0x529b3(%rip)        # 5df40 <warn@@Base+0x51509>
    b58d:	74 24                	je     b5b3 <error@@Base+0x2fab>
    b58f:	48 8b 0d 92 e5 04 00 	mov    0x4e592(%rip),%rcx        # 59b28 <warn@@Base+0x4d0f1>
    b596:	bf 09 00 00 00       	mov    $0x9,%edi
    b59b:	48 8b 31             	mov    (%rcx),%rsi
    b59e:	ff 15 34 ea 04 00    	call   *0x4ea34(%rip)        # 59fd8 <warn@@Base+0x4d5a1>
    b5a4:	eb 21                	jmp    b5c7 <error@@Base+0x2fbf>
    b5a6:	c7 44 24 7c 00 00 00 	movl   $0x0,0x7c(%rsp)
    b5ad:	00 
    b5ae:	e9 63 6d 02 00       	jmp    32316 <warn@@Base+0x258df>
    b5b3:	48 8d 35 d4 da 03 00 	lea    0x3dad4(%rip),%rsi        # 4908e <warn@@Base+0x3c657>
    b5ba:	bf 01 00 00 00       	mov    $0x1,%edi
    b5bf:	31 c0                	xor    %eax,%eax
    b5c1:	ff 15 41 e5 04 00    	call   *0x4e541(%rip)        # 59b08 <warn@@Base+0x4d0d1>
    b5c7:	83 3d d2 05 05 00 00 	cmpl   $0x0,0x505d2(%rip)        # 5bba0 <warn@@Base+0x4f169>
    b5ce:	75 3b                	jne    b60b <error@@Base+0x3003>
    b5d0:	48 8b 74 24 40       	mov    0x40(%rsp),%rsi
    b5d5:	ba 01 00 00 00       	mov    $0x1,%edx
    b5da:	48 8b 7e 30          	mov    0x30(%rsi),%rdi
    b5de:	4c 89 f6             	mov    %r14,%rsi
    b5e1:	48 89 7c 24 08       	mov    %rdi,0x8(%rsp)
    b5e6:	48 2b bc 24 c0 00 00 	sub    0xc0(%rsp),%rdi
    b5ed:	00 
    b5ee:	48 03 7b 08          	add    0x8(%rbx),%rdi
    b5f2:	e8 79 9a 02 00       	call   35070 <warn@@Base+0x28639>
    b5f7:	48 8d 35 48 3b 04 00 	lea    0x43b48(%rip),%rsi        # 4f146 <warn@@Base+0x4270f>
    b5fe:	bf 01 00 00 00       	mov    $0x1,%edi
    b603:	31 c0                	xor    %eax,%eax
    b605:	ff 15 fd e4 04 00    	call   *0x4e4fd(%rip)        # 59b08 <warn@@Base+0x4d0d1>
    b60b:	48 8b 43 18          	mov    0x18(%rbx),%rax
    b60f:	48 85 c0             	test   %rax,%rax
    b612:	0f 85 8c 00 00 00    	jne    b6a4 <error@@Base+0x309c>
    b618:	48 8d 35 3f 54 03 00 	lea    0x3543f(%rip),%rsi        # 40a5e <warn@@Base+0x34027>
    b61f:	bf 01 00 00 00       	mov    $0x1,%edi
    b624:	ff 15 de e4 04 00    	call   *0x4e4de(%rip)        # 59b08 <warn@@Base+0x4d0d1>
    b62a:	4c 8b 13             	mov    (%rbx),%r10
    b62d:	4d 85 d2             	test   %r10,%r10
    b630:	0f 85 bc 02 00 00    	jne    b8f2 <error@@Base+0x32ea>
    b636:	48 89 ee             	mov    %rbp,%rsi
    b639:	bf 01 00 00 00       	mov    $0x1,%edi
    b63e:	31 c0                	xor    %eax,%eax
    b640:	ff 15 c2 e4 04 00    	call   *0x4e4c2(%rip)        # 59b08 <warn@@Base+0x4d0d1>
    b646:	48 8b 5b 10          	mov    0x10(%rbx),%rbx
    b64a:	48 85 db             	test   %rbx,%rbx
    b64d:	74 2a                	je     b679 <error@@Base+0x3071>
    b64f:	0f 88 fe 02 00 00    	js     b953 <error@@Base+0x334b>
    b655:	48 8d 35 11 54 03 00 	lea    0x35411(%rip),%rsi        # 40a6d <warn@@Base+0x34036>
    b65c:	bf 01 00 00 00       	mov    $0x1,%edi
    b661:	31 c0                	xor    %eax,%eax
    b663:	ff 15 9f e4 04 00    	call   *0x4e49f(%rip)        # 59b08 <warn@@Base+0x4d0d1>
    b669:	ba 01 00 00 00       	mov    $0x1,%edx
    b66e:	4c 89 f6             	mov    %r14,%rsi
    b671:	48 89 df             	mov    %rbx,%rdi
    b674:	e8 f7 99 02 00       	call   35070 <warn@@Base+0x28639>
    b679:	bf 0a 00 00 00       	mov    $0xa,%edi
    b67e:	ff 15 bc e7 04 00    	call   *0x4e7bc(%rip)        # 59e40 <warn@@Base+0x4d409>
    b684:	31 c9                	xor    %ecx,%ecx
    b686:	48 83 44 24 70 08    	addq   $0x8,0x70(%rsp)
    b68c:	48 8b 54 24 70       	mov    0x70(%rsp),%rdx
    b691:	48 39 94 24 80 00 00 	cmp    %rdx,0x80(%rsp)
    b698:	00 
    b699:	0f 87 eb 74 02 00    	ja     32b8a <warn@@Base+0x26153>
    b69f:	e9 11 75 02 00       	jmp    32bb5 <warn@@Base+0x2617e>
    b6a4:	48 8b 50 20          	mov    0x20(%rax),%rdx
    b6a8:	48 85 d2             	test   %rdx,%rdx
    b6ab:	74 19                	je     b6c6 <error@@Base+0x30be>
    b6ad:	48 8d 35 2b 37 04 00 	lea    0x4372b(%rip),%rsi        # 4eddf <warn@@Base+0x423a8>
    b6b4:	bf 01 00 00 00       	mov    $0x1,%edi
    b6b9:	31 c0                	xor    %eax,%eax
    b6bb:	ff 15 47 e4 04 00    	call   *0x4e447(%rip)        # 59b08 <warn@@Base+0x4d0d1>
    b6c1:	e9 64 ff ff ff       	jmp    b62a <error@@Base+0x3022>
    b6c6:	8b 10                	mov    (%rax),%edx
    b6c8:	48 8d 35 00 db 03 00 	lea    0x3db00(%rip),%rsi        # 491cf <warn@@Base+0x3c798>
    b6cf:	bf 01 00 00 00       	mov    $0x1,%edi
    b6d4:	31 c0                	xor    %eax,%eax
    b6d6:	ff 15 2c e4 04 00    	call   *0x4e42c(%rip)        # 59b08 <warn@@Base+0x4d0d1>
    b6dc:	e9 49 ff ff ff       	jmp    b62a <error@@Base+0x3022>
    b6e1:	48 8b 44 24 30       	mov    0x30(%rsp),%rax
    b6e6:	31 d2                	xor    %edx,%edx
    b6e8:	48 f7 74 24 48       	divq   0x48(%rsp)
    b6ed:	e9 b5 74 02 00       	jmp    32ba7 <warn@@Base+0x26170>
    b6f2:	4c 89 e7             	mov    %r12,%rdi
    b6f5:	ff 15 c5 e4 04 00    	call   *0x4e4c5(%rip)        # 59bc0 <warn@@Base+0x4d189>
    b6fb:	48 89 84 24 20 01 00 	mov    %rax,0x120(%rsp)
    b702:	00 
    b703:	49 89 c4             	mov    %rax,%r12
    b706:	e9 20 7a 02 00       	jmp    3312b <warn@@Base+0x266f4>
    b70b:	48 8b 8c 24 a8 00 00 	mov    0xa8(%rsp),%rcx
    b712:	00 
    b713:	49 8b 6d 68          	mov    0x68(%r13),%rbp
    b717:	48 c7 84 24 e0 00 00 	movq   $0x0,0xe0(%rsp)
    b71e:	00 00 00 00 00 
    b723:	48 8b 79 30          	mov    0x30(%rcx),%rdi
    b727:	48 89 bc 24 c0 00 00 	mov    %rdi,0xc0(%rsp)
    b72e:	00 
    b72f:	e9 03 7d 02 00       	jmp    33437 <warn@@Base+0x26a00>
    b734:	48 8b 54 24 40       	mov    0x40(%rsp),%rdx
    b739:	c7 44 24 7c 00 00 00 	movl   $0x0,0x7c(%rsp)
    b740:	00 
    b741:	48 83 7a 30 00       	cmpq   $0x0,0x30(%rdx)
    b746:	0f 85 ca 6b 02 00    	jne    32316 <warn@@Base+0x258df>
    b74c:	b8 06 00 00 00       	mov    $0x6,%eax
    b751:	e9 5d fb ff ff       	jmp    b2b3 <error@@Base+0x2cab>
    b756:	4c 8b 4c 24 40       	mov    0x40(%rsp),%r9
    b75b:	c7 44 24 7c 00 00 00 	movl   $0x0,0x7c(%rsp)
    b762:	00 
    b763:	49 83 79 30 00       	cmpq   $0x0,0x30(%r9)
    b768:	0f 85 a8 6b 02 00    	jne    32316 <warn@@Base+0x258df>
    b76e:	b8 03 00 00 00       	mov    $0x3,%eax
    b773:	e9 3b fb ff ff       	jmp    b2b3 <error@@Base+0x2cab>
    b778:	4c 8b 5c 24 40       	mov    0x40(%rsp),%r11
    b77d:	c7 44 24 7c 00 00 00 	movl   $0x0,0x7c(%rsp)
    b784:	00 
    b785:	49 83 7b 30 00       	cmpq   $0x0,0x30(%r11)
    b78a:	0f 85 86 6b 02 00    	jne    32316 <warn@@Base+0x258df>
    b790:	b8 02 00 00 00       	mov    $0x2,%eax
    b795:	e9 19 fb ff ff       	jmp    b2b3 <error@@Base+0x2cab>
    b79a:	48 8b 4c 24 40       	mov    0x40(%rsp),%rcx
    b79f:	c7 44 24 7c 00 00 00 	movl   $0x0,0x7c(%rsp)
    b7a6:	00 
    b7a7:	48 83 79 30 00       	cmpq   $0x0,0x30(%rcx)
    b7ac:	0f 85 64 6b 02 00    	jne    32316 <warn@@Base+0x258df>
    b7b2:	b8 04 00 00 00       	mov    $0x4,%eax
    b7b7:	e9 f7 fa ff ff       	jmp    b2b3 <error@@Base+0x2cab>
    b7bc:	4c 8b 44 24 40       	mov    0x40(%rsp),%r8
    b7c1:	c7 44 24 7c 00 00 00 	movl   $0x0,0x7c(%rsp)
    b7c8:	00 
    b7c9:	49 83 78 30 00       	cmpq   $0x0,0x30(%r8)
    b7ce:	0f 85 42 6b 02 00    	jne    32316 <warn@@Base+0x258df>
    b7d4:	b8 08 00 00 00       	mov    $0x8,%eax
    b7d9:	e9 d5 fa ff ff       	jmp    b2b3 <error@@Base+0x2cab>
    b7de:	48 8b 6c 24 58       	mov    0x58(%rsp),%rbp
    b7e3:	4c 89 f6             	mov    %r14,%rsi
    b7e6:	4c 89 d7             	mov    %r10,%rdi
    b7e9:	31 d2                	xor    %edx,%edx
    b7eb:	c6 45 08 01          	movb   $0x1,0x8(%rbp)
    b7ef:	e8 fc 9b 02 00       	call   353f0 <warn@@Base+0x289b9>
    b7f4:	4c 8b 1d 2d e3 04 00 	mov    0x4e32d(%rip),%r11        # 59b28 <warn@@Base+0x4d0f1>
    b7fb:	c6 45 08 00          	movb   $0x0,0x8(%rbp)
    b7ff:	bf 20 00 00 00       	mov    $0x20,%edi
    b804:	49 8b 33             	mov    (%r11),%rsi
    b807:	ff 15 cb e7 04 00    	call   *0x4e7cb(%rip)        # 59fd8 <warn@@Base+0x4d5a1>
    b80d:	e9 e3 6c 02 00       	jmp    324f5 <warn@@Base+0x25abe>
    b812:	bf 09 00 00 00       	mov    $0x9,%edi
    b817:	ff 15 23 e6 04 00    	call   *0x4e623(%rip)        # 59e40 <warn@@Base+0x4d409>
    b81d:	e9 d3 6c 02 00       	jmp    324f5 <warn@@Base+0x25abe>
    b822:	48 8b 54 24 40       	mov    0x40(%rsp),%rdx
    b827:	48 8b 7c 24 18       	mov    0x18(%rsp),%rdi
    b82c:	48 8b 8c 24 e8 00 00 	mov    0xe8(%rsp),%rcx
    b833:	00 
    b834:	8b b4 24 f8 00 00 00 	mov    0xf8(%rsp),%esi
    b83b:	48 03 7a 30          	add    0x30(%rdx),%rdi
    b83f:	48 8b 94 24 88 00 00 	mov    0x88(%rsp),%rdx
    b846:	00 
    b847:	e8 53 3b 00 00       	call   f39f <warn@@Base+0x2968>
    b84c:	80 7c 24 7b 00       	cmpb   $0x0,0x7b(%rsp)
    b851:	0f 85 b8 6c 02 00    	jne    3250f <warn@@Base+0x25ad8>
    b857:	8b 44 24 28          	mov    0x28(%rsp),%eax
    b85b:	48 8b 4c 24 48       	mov    0x48(%rsp),%rcx
    b860:	31 d2                	xor    %edx,%edx
    b862:	4c 8b 54 24 18       	mov    0x18(%rsp),%r10
    b867:	48 8b 5c 24 50       	mov    0x50(%rsp),%rbx
    b86c:	48 89 44 24 30       	mov    %rax,0x30(%rsp)
    b871:	48 f7 f1             	div    %rcx
    b874:	4c 01 d0             	add    %r10,%rax
    b877:	48 39 d8             	cmp    %rbx,%rax
    b87a:	76 0f                	jbe    b88b <error@@Base+0x3283>
    b87c:	48 89 de             	mov    %rbx,%rsi
    b87f:	4c 29 d6             	sub    %r10,%rsi
    b882:	48 0f af f1          	imul   %rcx,%rsi
    b886:	48 89 74 24 30       	mov    %rsi,0x30(%rsp)
    b88b:	4c 8b 5c 24 48       	mov    0x48(%rsp),%r11
    b890:	4c 0f af 5c 24 18    	imul   0x18(%rsp),%r11
    b896:	b8 2e 00 00 00       	mov    $0x2e,%eax
    b89b:	4c 8d ac 24 70 02 00 	lea    0x270(%rsp),%r13
    b8a2:	00 
    b8a3:	48 8b 54 24 60       	mov    0x60(%rsp),%rdx
    b8a8:	4d 89 dc             	mov    %r11,%r12
    b8ab:	4d 29 dd             	sub    %r11,%r13
    b8ae:	48 8b 6c 24 30       	mov    0x30(%rsp),%rbp
    b8b3:	45 31 c0             	xor    %r8d,%r8d
    b8b6:	4c 01 dd             	add    %r11,%rbp
    b8b9:	41 0f 92 c0          	setb   %r8b
    b8bd:	49 39 ec             	cmp    %rbp,%r12
    b8c0:	0f 83 a5 00 00 00    	jae    b96b <error@@Base+0x3363>
    b8c6:	46 0f b6 0c 22       	movzbl (%rdx,%r12,1),%r9d
    b8cb:	4c 8b 15 1e e7 04 00 	mov    0x4e71e(%rip),%r10        # 59ff0 <warn@@Base+0x4d5b9>
    b8d2:	4c 89 c9             	mov    %r9,%rcx
    b8d5:	43 f6 04 4a 10       	testb  $0x10,(%r10,%r9,2)
    b8da:	0f 44 c8             	cmove  %eax,%ecx
    b8dd:	43 88 4c 25 00       	mov    %cl,0x0(%r13,%r12,1)
    b8e2:	49 83 c4 01          	add    $0x1,%r12
    b8e6:	eb c6                	jmp    b8ae <error@@Base+0x32a6>
    b8e8:	31 d2                	xor    %edx,%edx
    b8ea:	49 f7 f6             	div    %r14
    b8ed:	e9 14 69 02 00       	jmp    32206 <warn@@Base+0x257cf>
    b8f2:	49 8b 12             	mov    (%r10),%rdx
    b8f5:	48 85 d2             	test   %rdx,%rdx
    b8f8:	0f 84 38 fd ff ff    	je     b636 <error@@Base+0x302e>
    b8fe:	4c 8b 42 08          	mov    0x8(%rdx),%r8
    b902:	4d 85 c0             	test   %r8,%r8
    b905:	74 1b                	je     b922 <error@@Base+0x331a>
    b907:	41 80 38 00          	cmpb   $0x0,(%r8)
    b90b:	74 15                	je     b922 <error@@Base+0x331a>
    b90d:	48 8b 44 24 58       	mov    0x58(%rsp),%rax
    b912:	4c 89 f6             	mov    %r14,%rsi
    b915:	48 8b 38             	mov    (%rax),%rdi
    b918:	e8 13 81 02 00       	call   33a30 <warn@@Base+0x26ff9>
    b91d:	e9 24 fd ff ff       	jmp    b646 <error@@Base+0x303e>
    b922:	4c 8b 5a 20          	mov    0x20(%rdx),%r11
    b926:	49 8b 3b             	mov    (%r11),%rdi
    b929:	48 85 ff             	test   %rdi,%rdi
    b92c:	74 05                	je     b933 <error@@Base+0x332b>
    b92e:	80 3f 00             	cmpb   $0x0,(%rdi)
    b931:	75 03                	jne    b936 <error@@Base+0x332e>
    b933:	48 89 ef             	mov    %rbp,%rdi
    b936:	e8 55 1f 02 00       	call   2d890 <warn@@Base+0x20e59>
    b93b:	4c 89 ee             	mov    %r13,%rsi
    b93e:	bf 01 00 00 00       	mov    $0x1,%edi
    b943:	48 89 c2             	mov    %rax,%rdx
    b946:	31 c0                	xor    %eax,%eax
    b948:	ff 15 ba e1 04 00    	call   *0x4e1ba(%rip)        # 59b08 <warn@@Base+0x4d0d1>
    b94e:	e9 f3 fc ff ff       	jmp    b646 <error@@Base+0x303e>
    b953:	4c 89 e6             	mov    %r12,%rsi
    b956:	bf 01 00 00 00       	mov    $0x1,%edi
    b95b:	31 c0                	xor    %eax,%eax
    b95d:	48 f7 db             	neg    %rbx
    b960:	ff 15 a2 e1 04 00    	call   *0x4e1a2(%rip)        # 59b08 <warn@@Base+0x4d0d1>
    b966:	e9 fe fc ff ff       	jmp    b669 <error@@Base+0x3061>
    b96b:	31 ff                	xor    %edi,%edi
    b96d:	4d 85 c0             	test   %r8,%r8
    b970:	48 0f 44 7c 24 30    	cmove  0x30(%rsp),%rdi
    b976:	c6 84 3c 70 02 00 00 	movb   $0x0,0x270(%rsp,%rdi,1)
    b97d:	00 
    b97e:	e9 bb 6c 02 00       	jmp    3263e <warn@@Base+0x25c07>
    b983:	49 83 c2 08          	add    $0x8,%r10
    b987:	e9 b9 62 02 00       	jmp    31c45 <warn@@Base+0x2520e>
    b98c:	48 8b 74 24 40       	mov    0x40(%rsp),%rsi
    b991:	c7 44 24 7c 00 00 00 	movl   $0x0,0x7c(%rsp)
    b998:	00 
    b999:	48 83 7e 30 00       	cmpq   $0x0,0x30(%rsi)
    b99e:	0f 85 72 69 02 00    	jne    32316 <warn@@Base+0x258df>
    b9a4:	b8 09 00 00 00       	mov    $0x9,%eax
    b9a9:	e9 05 f9 ff ff       	jmp    b2b3 <error@@Base+0x2cab>
    b9ae:	4c 89 e7             	mov    %r12,%rdi
    b9b1:	45 31 ed             	xor    %r13d,%r13d
    b9b4:	ff 15 46 e3 04 00    	call   *0x4e346(%rip)        # 59d00 <warn@@Base+0x4d2c9>
    b9ba:	48 89 6c 24 30       	mov    %rbp,0x30(%rsp)
    b9bf:	48 89 44 24 20       	mov    %rax,0x20(%rsp)
    b9c4:	44 39 2d 7d 24 05 00 	cmp    %r13d,0x5247d(%rip)        # 5de48 <warn@@Base+0x51411>
    b9cb:	0f 8e 34 01 00 00    	jle    bb05 <error@@Base+0x34fd>
    b9d1:	48 8b 2d 68 24 05 00 	mov    0x52468(%rip),%rbp        # 5de40 <warn@@Base+0x51409>
    b9d8:	48 8b 54 24 20       	mov    0x20(%rsp),%rdx
    b9dd:	31 c9                	xor    %ecx,%ecx
    b9df:	31 c0                	xor    %eax,%eax
    b9e1:	48 8d 35 22 31 04 00 	lea    0x43122(%rip),%rsi        # 4eb0a <warn@@Base+0x420d3>
    b9e8:	4a 8b 7c ed 00       	mov    0x0(%rbp,%r13,8),%rdi
    b9ed:	49 83 c5 01          	add    $0x1,%r13
    b9f1:	ff 15 a9 e2 04 00    	call   *0x4e2a9(%rip)        # 59ca0 <warn@@Base+0x4d269>
    b9f7:	48 89 da             	mov    %rbx,%rdx
    b9fa:	4c 89 e7             	mov    %r12,%rdi
    b9fd:	48 89 c6             	mov    %rax,%rsi
    ba00:	48 89 c5             	mov    %rax,%rbp
    ba03:	e8 f8 32 03 00       	call   3ed00 <warn@@Base+0x322c9>
    ba08:	48 85 c0             	test   %rax,%rax
    ba0b:	0f 85 f9 00 00 00    	jne    bb0a <error@@Base+0x3502>
    ba11:	48 89 ef             	mov    %rbp,%rdi
    ba14:	ff 15 5e e3 04 00    	call   *0x4e35e(%rip)        # 59d78 <warn@@Base+0x4d341>
    ba1a:	eb a8                	jmp    b9c4 <error@@Base+0x33bc>
    ba1c:	48 8d 15 d1 4c 03 00 	lea    0x34cd1(%rip),%rdx        # 406f4 <warn@@Base+0x33cbd>
    ba23:	e9 bd 74 02 00       	jmp    32ee5 <warn@@Base+0x264ae>
    ba28:	48 8d 15 c5 4c 03 00 	lea    0x34cc5(%rip),%rdx        # 406f4 <warn@@Base+0x33cbd>
    ba2f:	48 85 ff             	test   %rdi,%rdi
    ba32:	74 08                	je     ba3c <error@@Base+0x3434>
    ba34:	e8 57 1e 02 00       	call   2d890 <warn@@Base+0x20e59>
    ba39:	48 89 c2             	mov    %rax,%rdx
    ba3c:	45 89 e0             	mov    %r12d,%r8d
    ba3f:	44 89 e9             	mov    %r13d,%ecx
    ba42:	48 8d 35 db 4f 03 00 	lea    0x34fdb(%rip),%rsi        # 40a24 <warn@@Base+0x33fed>
    ba49:	31 c0                	xor    %eax,%eax
    ba4b:	bf 01 00 00 00       	mov    $0x1,%edi
    ba50:	ff 15 b2 e0 04 00    	call   *0x4e0b2(%rip)        # 59b08 <warn@@Base+0x4d0d1>
    ba56:	e9 f8 73 02 00       	jmp    32e53 <warn@@Base+0x2641c>
    ba5b:	41 80 3e 00          	cmpb   $0x0,(%r14)
    ba5f:	0f 84 c8 77 02 00    	je     3322d <warn@@Base+0x267f6>
    ba65:	4c 89 f6             	mov    %r14,%rsi
    ba68:	8b 15 c2 e5 04 00    	mov    0x4e5c2(%rip),%edx        # 5a030 <warn@@Base+0x4d5f9>
    ba6e:	48 8b bc 24 b8 00 00 	mov    0xb8(%rsp),%rdi
    ba75:	00 
    ba76:	ff 15 a4 e1 04 00    	call   *0x4e1a4(%rip)        # 59c20 <warn@@Base+0x4d1e9>
    ba7c:	48 85 c0             	test   %rax,%rax
    ba7f:	49 89 c2             	mov    %rax,%r10
    ba82:	4c 0f 45 f0          	cmovne %rax,%r14
    ba86:	e9 a2 77 02 00       	jmp    3322d <warn@@Base+0x267f6>
    ba8b:	48 8b 44 24 30       	mov    0x30(%rsp),%rax
    ba90:	31 d2                	xor    %edx,%edx
    ba92:	4c 8b 4c 24 18       	mov    0x18(%rsp),%r9
    ba97:	48 f7 74 24 48       	divq   0x48(%rsp)
    ba9c:	49 89 c4             	mov    %rax,%r12
    ba9f:	49 01 c1             	add    %rax,%r9
    baa2:	4c 3b 4c 24 50       	cmp    0x50(%rsp),%r9
    baa7:	0f 83 eb 6e 02 00    	jae    32998 <warn@@Base+0x25f61>
    baad:	48 8b 74 24 40       	mov    0x40(%rsp),%rsi
    bab2:	48 8b 6c 24 18       	mov    0x18(%rsp),%rbp
    bab7:	ba 05 00 00 00       	mov    $0x5,%edx
    babc:	31 ff                	xor    %edi,%edi
    babe:	48 03 ae 98 00 00 00 	add    0x98(%rsi),%rbp
    bac5:	48 8d 35 a4 6c 03 00 	lea    0x36ca4(%rip),%rsi        # 42770 <warn@@Base+0x35d39>
    bacc:	48 01 c5             	add    %rax,%rbp
    bacf:	ff 15 a3 e1 04 00    	call   *0x4e1a3(%rip)        # 59c78 <warn@@Base+0x4d241>
    bad5:	48 89 e9             	mov    %rbp,%rcx
    bad8:	4c 89 e2             	mov    %r12,%rdx
    badb:	bf 01 00 00 00       	mov    $0x1,%edi
    bae0:	48 89 c6             	mov    %rax,%rsi
    bae3:	31 c0                	xor    %eax,%eax
    bae5:	ff 15 1d e0 04 00    	call   *0x4e01d(%rip)        # 59b08 <warn@@Base+0x4d0d1>
    baeb:	4c 8b 54 24 70       	mov    0x70(%rsp),%r10
    baf0:	4c 39 94 24 80 00 00 	cmp    %r10,0x80(%rsp)
    baf7:	00 
    baf8:	0f 86 6c 6d 02 00    	jbe    3286a <warn@@Base+0x25e33>
    bafe:	31 c9                	xor    %ecx,%ecx
    bb00:	e9 5b 70 02 00       	jmp    32b60 <warn@@Base+0x26129>
    bb05:	e9 d6 72 02 00       	jmp    32de0 <warn@@Base+0x263a9>
    bb0a:	48 8b 6c 24 30       	mov    0x30(%rsp),%rbp
    bb0f:	49 89 c5             	mov    %rax,%r13
    bb12:	e9 44 76 02 00       	jmp    3315b <warn@@Base+0x26724>
    bb17:	48 8b 44 24 40       	mov    0x40(%rsp),%rax
    bb1c:	c7 44 24 7c 00 00 00 	movl   $0x0,0x7c(%rsp)
    bb23:	00 
    bb24:	48 83 78 30 00       	cmpq   $0x0,0x30(%rax)
    bb29:	0f 85 e7 67 02 00    	jne    32316 <warn@@Base+0x258df>
    bb2f:	b8 05 00 00 00       	mov    $0x5,%eax
    bb34:	e9 7a f7 ff ff       	jmp    b2b3 <error@@Base+0x2cab>
    bb39:	4c 89 44 24 20       	mov    %r8,0x20(%rsp)
    bb3e:	4c 89 ef             	mov    %r13,%rdi
    bb41:	ff 15 89 e0 04 00    	call   *0x4e089(%rip)        # 59bd0 <warn@@Base+0x4d199>
    bb47:	48 8b 35 e2 23 05 00 	mov    0x523e2(%rip),%rsi        # 5df30 <warn@@Base+0x514f9>
    bb4e:	48 8d 7c 06 01       	lea    0x1(%rsi,%rax,1),%rdi
    bb53:	ff 15 cf e2 04 00    	call   *0x4e2cf(%rip)        # 59e28 <warn@@Base+0x4d3f1>
    bb59:	4c 8b 25 d0 23 05 00 	mov    0x523d0(%rip),%r12        # 5df30 <warn@@Base+0x514f9>
    bb60:	4c 8b 54 24 20       	mov    0x20(%rsp),%r10
    bb65:	48 89 44 24 08       	mov    %rax,0x8(%rsp)
    bb6a:	4d 85 e4             	test   %r12,%r12
    bb6d:	75 35                	jne    bba4 <error@@Base+0x359c>
    bb6f:	4c 8b 4c 24 08       	mov    0x8(%rsp),%r9
    bb74:	8b 15 b2 23 05 00    	mov    0x523b2(%rip),%edx        # 5df2c <warn@@Base+0x514f5>
    bb7a:	4b 8d 3c 21          	lea    (%r9,%r12,1),%rdi
    bb7e:	85 d2                	test   %edx,%edx
    bb80:	7e 3c                	jle    bbbe <error@@Base+0x35b6>
    bb82:	49 83 c5 01          	add    $0x1,%r13
    bb86:	31 c0                	xor    %eax,%eax
    bb88:	41 0f b6 4d 00       	movzbl 0x0(%r13),%ecx
    bb8d:	39 c2                	cmp    %eax,%edx
    bb8f:	7e 2d                	jle    bbbe <error@@Base+0x35b6>
    bb91:	84 c9                	test   %cl,%cl
    bb93:	74 29                	je     bbbe <error@@Base+0x35b6>
    bb95:	80 f9 2f             	cmp    $0x2f,%cl
    bb98:	0f 84 2a 05 00 00    	je     c0c8 <error@@Base+0x3ac0>
    bb9e:	49 83 c5 01          	add    $0x1,%r13
    bba2:	eb e4                	jmp    bb88 <error@@Base+0x3580>
    bba4:	48 8b 35 8d 23 05 00 	mov    0x5238d(%rip),%rsi        # 5df38 <warn@@Base+0x51501>
    bbab:	4c 89 e2             	mov    %r12,%rdx
    bbae:	48 89 c7             	mov    %rax,%rdi
    bbb1:	ff 15 f1 e0 04 00    	call   *0x4e0f1(%rip)        # 59ca8 <warn@@Base+0x4d271>
    bbb7:	4c 8b 54 24 20       	mov    0x20(%rsp),%r10
    bbbc:	eb b1                	jmp    bb6f <error@@Base+0x3567>
    bbbe:	4c 89 d6             	mov    %r10,%rsi
    bbc1:	ff 15 19 e1 04 00    	call   *0x4e119(%rip)        # 59ce0 <warn@@Base+0x4d2a9>
    bbc7:	48 8b 7c 24 08       	mov    0x8(%rsp),%rdi
    bbcc:	48 89 bc 24 20 01 00 	mov    %rdi,0x120(%rsp)
    bbd3:	00 
    bbd4:	e9 29 71 02 00       	jmp    32d02 <warn@@Base+0x262cb>
    bbd9:	4c 8d 84 24 50 01 00 	lea    0x150(%rsp),%r8
    bbe0:	00 
    bbe1:	4c 8d 9c 24 0c 01 00 	lea    0x10c(%rsp),%r11
    bbe8:	00 
    bbe9:	4c 89 44 24 30       	mov    %r8,0x30(%rsp)
    bbee:	4c 8d ac 24 30 01 00 	lea    0x130(%rsp),%r13
    bbf5:	00 
    bbf6:	4c 8d 25 98 4b 03 00 	lea    0x34b98(%rip),%r12        # 40795 <warn@@Base+0x33d5e>
    bbfd:	4c 89 5c 24 20       	mov    %r11,0x20(%rsp)
    bc02:	48 8b 45 08          	mov    0x8(%rbp),%rax
    bc06:	48 8b 4c 24 20       	mov    0x20(%rsp),%rcx
    bc0b:	4c 89 ee             	mov    %r13,%rsi
    bc0e:	48 89 ef             	mov    %rbp,%rdi
    bc11:	48 8b 54 24 30       	mov    0x30(%rsp),%rdx
    bc16:	ff 90 50 02 00 00    	call   *0x250(%rax)
    bc1c:	84 c0                	test   %al,%al
    bc1e:	0f 84 fa 00 00 00    	je     bd1e <error@@Base+0x3716>
    bc24:	8b b4 24 0c 01 00 00 	mov    0x10c(%rsp),%esi
    bc2b:	48 8b bc 24 30 01 00 	mov    0x130(%rsp),%rdi
    bc32:	00 
    bc33:	89 74 24 38          	mov    %esi,0x38(%rsp)
    bc37:	e8 54 1c 02 00       	call   2d890 <warn@@Base+0x20e59>
    bc3c:	8b 4c 24 38          	mov    0x38(%rsp),%ecx
    bc40:	bf 01 00 00 00       	mov    $0x1,%edi
    bc45:	48 8d 35 f9 4d 03 00 	lea    0x34df9(%rip),%rsi        # 40a45 <warn@@Base+0x3400e>
    bc4c:	48 89 c2             	mov    %rax,%rdx
    bc4f:	31 c0                	xor    %eax,%eax
    bc51:	ff 15 b1 de 04 00    	call   *0x4deb1(%rip)        # 59b08 <warn@@Base+0x4d0d1>
    bc57:	48 8b bc 24 50 01 00 	mov    0x150(%rsp),%rdi
    bc5e:	00 
    bc5f:	e8 2c 1c 02 00       	call   2d890 <warn@@Base+0x20e59>
    bc64:	4c 89 e6             	mov    %r12,%rsi
    bc67:	bf 01 00 00 00       	mov    $0x1,%edi
    bc6c:	48 89 c2             	mov    %rax,%rdx
    bc6f:	31 c0                	xor    %eax,%eax
    bc71:	ff 15 91 de 04 00    	call   *0x4de91(%rip)        # 59b08 <warn@@Base+0x4d0d1>
    bc77:	eb 89                	jmp    bc02 <error@@Base+0x35fa>
    bc79:	41 80 7d 00 00       	cmpb   $0x0,0x0(%r13)
    bc7e:	0f 84 ee 71 02 00    	je     32e72 <warn@@Base+0x2643b>
    bc84:	8b 15 a6 e3 04 00    	mov    0x4e3a6(%rip),%edx        # 5a030 <warn@@Base+0x4d5f9>
    bc8a:	4c 89 ee             	mov    %r13,%rsi
    bc8d:	48 89 ef             	mov    %rbp,%rdi
    bc90:	ff 15 8a df 04 00    	call   *0x4df8a(%rip)        # 59c20 <warn@@Base+0x4d1e9>
    bc96:	49 89 c4             	mov    %rax,%r12
    bc99:	48 85 c0             	test   %rax,%rax
    bc9c:	74 24                	je     bcc2 <error@@Base+0x36ba>
    bc9e:	48 89 c7             	mov    %rax,%rdi
    bca1:	e8 ea 1b 02 00       	call   2d890 <warn@@Base+0x20e59>
    bca6:	48 8d 35 b7 47 03 00 	lea    0x347b7(%rip),%rsi        # 40464 <warn@@Base+0x33a2d>
    bcad:	bf 01 00 00 00       	mov    $0x1,%edi
    bcb2:	48 89 c2             	mov    %rax,%rdx
    bcb5:	31 c0                	xor    %eax,%eax
    bcb7:	ff 15 4b de 04 00    	call   *0x4de4b(%rip)        # 59b08 <warn@@Base+0x4d0d1>
    bcbd:	e9 d2 71 02 00       	jmp    32e94 <warn@@Base+0x2645d>
    bcc2:	4c 8b ac 24 28 01 00 	mov    0x128(%rsp),%r13
    bcc9:	00 
    bcca:	e9 a3 71 02 00       	jmp    32e72 <warn@@Base+0x2643b>
    bccf:	48 8b 7c 24 08       	mov    0x8(%rsp),%rdi
    bcd4:	ff 15 9e e0 04 00    	call   *0x4e09e(%rip)        # 59d78 <warn@@Base+0x4d341>
    bcda:	e9 fa 6d 02 00       	jmp    32ad9 <warn@@Base+0x260a2>
    bcdf:	44 89 0d fa 20 05 00 	mov    %r9d,0x520fa(%rip)        # 5dde0 <warn@@Base+0x513a9>
    bce6:	e9 a0 70 02 00       	jmp    32d8b <warn@@Base+0x26354>
    bceb:	4c 8b 54 24 40       	mov    0x40(%rsp),%r10
    bcf0:	c7 44 24 7c 00 00 00 	movl   $0x0,0x7c(%rsp)
    bcf7:	00 
    bcf8:	49 83 7a 30 00       	cmpq   $0x0,0x30(%r10)
    bcfd:	0f 85 13 66 02 00    	jne    32316 <warn@@Base+0x258df>
    bd03:	b8 01 00 00 00       	mov    $0x1,%eax
    bd08:	e9 a6 f5 ff ff       	jmp    b2b3 <error@@Base+0x2cab>
    bd0d:	48 c7 84 24 28 01 00 	movq   $0x0,0x128(%rsp)
    bd14:	00 00 00 00 00 
    bd19:	e9 0a 72 02 00       	jmp    32f28 <warn@@Base+0x264f1>
    bd1e:	e9 ec 6f 02 00       	jmp    32d0f <warn@@Base+0x262d8>
    bd23:	4c 8b ac 24 b8 00 00 	mov    0xb8(%rsp),%r13
    bd2a:	00 
    bd2b:	49 8b 7d 00          	mov    0x0(%r13),%rdi
    bd2f:	e8 fc 00 03 00       	call   3be30 <warn@@Base+0x2f3f9>
    bd34:	48 89 cf             	mov    %rcx,%rdi
    bd37:	ff 15 3b e0 04 00    	call   *0x4e03b(%rip)        # 59d78 <warn@@Base+0x4d341>
    bd3d:	83 3d 6c fe 04 00 00 	cmpl   $0x0,0x4fe6c(%rip)        # 5bbb0 <warn@@Base+0x4f179>
    bd44:	c7 84 24 d4 00 00 00 	movl   $0x1,0xd4(%rsp)
    bd4b:	01 00 00 00 
    bd4f:	0f 84 2f 61 02 00    	je     31e84 <warn@@Base+0x2544d>
    bd55:	48 8b 84 24 a0 00 00 	mov    0xa0(%rsp),%rax
    bd5c:	00 
    bd5d:	0f b6 9c 24 d3 00 00 	movzbl 0xd3(%rsp),%ebx
    bd64:	00 
    bd65:	48 8b 50 20          	mov    0x20(%rax),%rdx
    bd69:	4c 8b 70 10          	mov    0x10(%rax),%r14
    bd6d:	e9 7e 61 02 00       	jmp    31ef0 <warn@@Base+0x254b9>
    bd72:	4c 8b 44 24 60       	mov    0x60(%rsp),%r8
    bd77:	4c 01 c3             	add    %r8,%rbx
    bd7a:	49 01 e8             	add    %rbp,%r8
    bd7d:	4c 89 44 24 38       	mov    %r8,0x38(%rsp)
    bd82:	48 3b 5c 24 38       	cmp    0x38(%rsp),%rbx
    bd87:	0f 84 ac 03 00 00    	je     c139 <error@@Base+0x3b31>
    bd8d:	0f b6 13             	movzbl (%rbx),%edx
    bd90:	4c 89 fe             	mov    %r15,%rsi
    bd93:	bf 01 00 00 00       	mov    $0x1,%edi
    bd98:	31 c0                	xor    %eax,%eax
    bd9a:	ff 15 68 dd 04 00    	call   *0x4dd68(%rip)        # 59b08 <warn@@Base+0x4d0d1>
    bda0:	48 83 c3 01          	add    $0x1,%rbx
    bda4:	eb dc                	jmp    bd82 <error@@Base+0x377a>
    bda6:	48 8b 8c 24 a0 00 00 	mov    0xa0(%rsp),%rcx
    bdad:	00 
    bdae:	f6 41 18 08          	testb  $0x8,0x18(%rcx)
    bdb2:	0f 84 1b 03 00 00    	je     c0d3 <error@@Base+0x3acb>
    bdb8:	31 db                	xor    %ebx,%ebx
    bdba:	e9 31 61 02 00       	jmp    31ef0 <warn@@Base+0x254b9>
    bdbf:	4c 8b 94 24 a0 00 00 	mov    0xa0(%rsp),%r10
    bdc6:	00 
    bdc7:	0f b6 9c 24 d3 00 00 	movzbl 0xd3(%rsp),%ebx
    bdce:	00 
    bdcf:	49 8b 52 20          	mov    0x20(%r10),%rdx
    bdd3:	4d 8b 72 10          	mov    0x10(%r10),%r14
    bdd7:	e9 14 61 02 00       	jmp    31ef0 <warn@@Base+0x254b9>
    bddc:	48 89 cf             	mov    %rcx,%rdi
    bddf:	ff 15 93 df 04 00    	call   *0x4df93(%rip)        # 59d78 <warn@@Base+0x4d341>
    bde5:	83 3d c4 fd 04 00 00 	cmpl   $0x0,0x4fdc4(%rip)        # 5bbb0 <warn@@Base+0x4f179>
    bdec:	c7 84 24 d4 00 00 00 	movl   $0x1,0xd4(%rsp)
    bdf3:	01 00 00 00 
    bdf7:	0f 84 87 60 02 00    	je     31e84 <warn@@Base+0x2544d>
    bdfd:	4c 8b b4 24 a0 00 00 	mov    0xa0(%rsp),%r14
    be04:	00 
    be05:	0f b6 9c 24 d3 00 00 	movzbl 0xd3(%rsp),%ebx
    be0c:	00 
    be0d:	49 8b 56 20          	mov    0x20(%r14),%rdx
    be11:	4d 8b 76 10          	mov    0x10(%r14),%r14
    be15:	e9 d6 60 02 00       	jmp    31ef0 <warn@@Base+0x254b9>
    be1a:	41 c6 43 ff 30       	movb   $0x30,-0x1(%r11)
    be1f:	e9 c8 77 02 00       	jmp    335ec <warn@@Base+0x26bb5>
    be24:	49 8b 7c 24 08       	mov    0x8(%r12),%rdi
    be29:	48 85 ff             	test   %rdi,%rdi
    be2c:	0f 84 f6 62 02 00    	je     32128 <warn@@Base+0x256f1>
    be32:	ff 15 98 dd 04 00    	call   *0x4dd98(%rip)        # 59bd0 <warn@@Base+0x4d199>
    be38:	4c 8d 35 91 94 02 00 	lea    0x29491(%rip),%r14        # 352d0 <warn@@Base+0x28899>
    be3f:	48 8d 78 28          	lea    0x28(%rax),%rdi
    be43:	48 89 bc 24 40 01 00 	mov    %rdi,0x140(%rsp)
    be4a:	00 
    be4b:	ff 15 d7 df 04 00    	call   *0x4dfd7(%rip)        # 59e28 <warn@@Base+0x4d3f1>
    be51:	48 8b bc 24 b8 00 00 	mov    0xb8(%rsp),%rdi
    be58:	00 
    be59:	48 8d 94 24 30 01 00 	lea    0x130(%rsp),%rdx
    be60:	00 
    be61:	48 8d b4 24 70 01 00 	lea    0x170(%rsp),%rsi
    be68:	00 
    be69:	48 89 94 24 78 01 00 	mov    %rdx,0x178(%rsp)
    be70:	00 
    be71:	4c 89 e2             	mov    %r12,%rdx
    be74:	45 31 e4             	xor    %r12d,%r12d
    be77:	48 89 84 24 30 01 00 	mov    %rax,0x130(%rsp)
    be7e:	00 
    be7f:	4c 89 b4 24 70 01 00 	mov    %r14,0x170(%rsp)
    be86:	00 
    be87:	48 c7 84 24 38 01 00 	movq   $0x0,0x138(%rsp)
    be8e:	00 00 00 00 00 
    be93:	e8 98 7b 02 00       	call   33a30 <warn@@Base+0x26ff9>
    be98:	45 8b 8d c4 00 00 00 	mov    0xc4(%r13),%r9d
    be9f:	49 8b 4d 10          	mov    0x10(%r13),%rcx
    bea3:	bf 78 00 00 00       	mov    $0x78,%edi
    bea8:	48 8b 84 24 c8 00 00 	mov    0xc8(%rsp),%rax
    beaf:	00 
    beb0:	49 8b 5d 30          	mov    0x30(%r13),%rbx
    beb4:	44 89 4c 24 10       	mov    %r9d,0x10(%rsp)
    beb9:	4c 8b 50 10          	mov    0x10(%rax),%r10
    bebd:	44 89 4c 24 08       	mov    %r9d,0x8(%rsp)
    bec2:	48 89 4c 24 28       	mov    %rcx,0x28(%rsp)
    bec7:	4c 89 54 24 20       	mov    %r10,0x20(%rsp)
    becc:	48 c7 84 24 60 01 00 	movq   $0x78,0x160(%rsp)
    bed3:	00 78 00 00 00 
    bed8:	ff 15 4a df 04 00    	call   *0x4df4a(%rip)        # 59e28 <warn@@Base+0x4d3f1>
    bede:	48 8b 7c 24 18       	mov    0x18(%rsp),%rdi
    bee3:	48 c7 84 24 58 01 00 	movq   $0x0,0x158(%rsp)
    beea:	00 00 00 00 00 
    beef:	48 8d b4 24 50 01 00 	lea    0x150(%rsp),%rsi
    bef6:	00 
    bef7:	48 89 84 24 50 01 00 	mov    %rax,0x150(%rsp)
    befe:	00 
    beff:	4d 89 75 00          	mov    %r14,0x0(%r13)
    bf03:	4d 89 ee             	mov    %r13,%r14
    bf06:	41 c6 85 d1 00 00 00 	movb   $0x0,0xd1(%r13)
    bf0d:	00 
    bf0e:	49 89 75 08          	mov    %rsi,0x8(%r13)
    bf12:	49 89 fd             	mov    %rdi,%r13
    bf15:	4c 3b 6c 24 50       	cmp    0x50(%rsp),%r13
    bf1a:	0f 83 1e 02 00 00    	jae    c13e <error@@Base+0x3b36>
    bf20:	44 0f b6 1d c9 1f 05 	movzbl 0x51fc9(%rip),%r11d        # 5def1 <warn@@Base+0x514ba>
    bf27:	00 
    bf28:	45 31 c0             	xor    %r8d,%r8d
    bf2b:	83 3d 0e 20 05 00 00 	cmpl   $0x0,0x5200e(%rip)        # 5df40 <warn@@Base+0x51509>
    bf32:	48 c7 84 24 58 01 00 	movq   $0x0,0x158(%rsp)
    bf39:	00 00 00 00 00 
    bf3e:	49 c7 86 b8 00 00 00 	movq   $0x0,0xb8(%r14)
    bf45:	00 00 00 00 
    bf49:	41 0f 95 c0          	setne  %r8b
    bf4d:	44 89 da             	mov    %r11d,%edx
    bf50:	41 c1 e0 1c          	shl    $0x1c,%r8d
    bf54:	c1 e2 1e             	shl    $0x1e,%edx
    bf57:	41 09 d0             	or     %edx,%r8d
    bf5a:	48 83 3d f6 1f 05 00 	cmpq   $0x0,0x51ff6(%rip)        # 5df58 <warn@@Base+0x51521>
    bf61:	00 
    bf62:	44 89 c6             	mov    %r8d,%esi
    bf65:	49 89 76 58          	mov    %rsi,0x58(%r14)
    bf69:	74 0b                	je     bf76 <error@@Base+0x396e>
    bf6b:	41 81 c8 00 00 00 20 	or     $0x20000000,%r8d
    bf72:	4d 89 46 58          	mov    %r8,0x58(%r14)
    bf76:	41 80 be d0 00 00 00 	cmpb   $0x0,0xd0(%r14)
    bf7d:	00 
    bf7e:	74 23                	je     bfa3 <error@@Base+0x399b>
    bf80:	48 8b 6c 24 28       	mov    0x28(%rsp),%rbp
    bf85:	4c 8b 4d 00          	mov    0x0(%rbp),%r9
    bf89:	41 f6 41 44 42       	testb  $0x42,0x44(%r9)
    bf8e:	75 13                	jne    bfa3 <error@@Base+0x399b>
    bf90:	48 8b 4c 24 70       	mov    0x70(%rsp),%rcx
    bf95:	48 39 8c 24 80 00 00 	cmp    %rcx,0x80(%rsp)
    bf9c:	00 
    bf9d:	0f 87 11 03 00 00    	ja     c2b4 <error@@Base+0x3cac>
    bfa3:	4c 8b 43 30          	mov    0x30(%rbx),%r8
    bfa7:	45 84 db             	test   %r11b,%r11b
    bfaa:	75 18                	jne    bfc4 <error@@Base+0x39bc>
    bfac:	44 8b 5b 28          	mov    0x28(%rbx),%r11d
    bfb0:	41 81 e3 10 01 00 00 	and    $0x110,%r11d
    bfb7:	41 81 fb 10 01 00 00 	cmp    $0x110,%r11d
    bfbe:	0f 84 db 02 00 00    	je     c29f <error@@Base+0x3c97>
    bfc4:	4c 8b 4c 24 50       	mov    0x50(%rsp),%r9
    bfc9:	41 c6 86 d1 00 00 00 	movb   $0x0,0xd1(%r14)
    bfd0:	00 
    bfd1:	4b 8d 7c 05 00       	lea    0x0(%r13,%r8,1),%rdi
    bfd6:	4c 89 f6             	mov    %r14,%rsi
    bfd9:	48 8b 4c 24 20       	mov    0x20(%rsp),%rcx
    bfde:	4d 89 8e f8 00 00 00 	mov    %r9,0xf8(%r14)
    bfe5:	ff d1                	call   *%rcx
    bfe7:	41 80 be d1 00 00 00 	cmpb   $0x0,0xd1(%r14)
    bfee:	00 
    bfef:	89 44 24 08          	mov    %eax,0x8(%rsp)
    bff3:	74 3a                	je     c02f <error@@Base+0x3a27>
    bff5:	41 8b be d4 00 00 00 	mov    0xd4(%r14),%edi
    bffc:	8d 47 fe             	lea    -0x2(%rdi),%eax
    bfff:	83 f8 03             	cmp    $0x3,%eax
    c002:	77 2b                	ja     c02f <error@@Base+0x3a27>
    c004:	48 8b 6b 30          	mov    0x30(%rbx),%rbp
    c008:	4c 8b 54 24 18       	mov    0x18(%rsp),%r10
    c00d:	49 8b 96 d8 00 00 00 	mov    0xd8(%r14),%rdx
    c014:	4e 8d 44 15 00       	lea    0x0(%rbp,%r10,1),%r8
    c019:	4c 39 c2             	cmp    %r8,%rdx
    c01c:	72 11                	jb     c02f <error@@Base+0x3a27>
    c01e:	4c 8b 5c 24 50       	mov    0x50(%rsp),%r11
    c023:	49 01 eb             	add    %rbp,%r11
    c026:	4c 39 da             	cmp    %r11,%rdx
    c029:	0f 82 30 03 00 00    	jb     c35f <error@@Base+0x3d57>
    c02f:	8b 44 24 08          	mov    0x8(%rsp),%eax
    c033:	31 d2                	xor    %edx,%edx
    c035:	49 c7 86 f0 00 00 00 	movq   $0x0,0xf0(%r14)
    c03c:	00 00 00 00 
    c040:	f7 74 24 10          	divl   0x10(%rsp)
    c044:	49 01 c5             	add    %rax,%r13
    c047:	e9 c9 fe ff ff       	jmp    bf15 <error@@Base+0x390d>
    c04c:	48 8b 44 24 58       	mov    0x58(%rsp),%rax
    c051:	48 8b 10             	mov    (%rax),%rdx
    c054:	f6 42 44 42          	testb  $0x42,0x44(%rdx)
    c058:	0f 85 cd 00 00 00    	jne    c12b <error@@Base+0x3b23>
    c05e:	4c 8b 4c 24 70       	mov    0x70(%rsp),%r9
    c063:	4c 39 8c 24 80 00 00 	cmp    %r9,0x80(%rsp)
    c06a:	00 
    c06b:	0f 87 8c 04 00 00    	ja     c4fd <error@@Base+0x3ef5>
    c071:	48 8b 4c 24 40       	mov    0x40(%rsp),%rcx
    c076:	4c 8b 49 30          	mov    0x30(%rcx),%r9
    c07a:	e9 0b 65 02 00       	jmp    3258a <warn@@Base+0x25b53>
    c07f:	83 3d 2a fb 04 00 00 	cmpl   $0x0,0x4fb2a(%rip)        # 5bbb0 <warn@@Base+0x4f179>
    c086:	0f 84 f8 5d 02 00    	je     31e84 <warn@@Base+0x2544d>
    c08c:	48 8b b4 24 a0 00 00 	mov    0xa0(%rsp),%rsi
    c093:	00 
    c094:	48 8b 56 20          	mov    0x20(%rsi),%rdx
    c098:	4c 8b 76 10          	mov    0x10(%rsi),%r14
    c09c:	e9 4f 5e 02 00       	jmp    31ef0 <warn@@Base+0x254b9>
    c0a1:	31 ff                	xor    %edi,%edi
    c0a3:	ba 05 00 00 00       	mov    $0x5,%edx
    c0a8:	48 8d 35 29 67 03 00 	lea    0x36729(%rip),%rsi        # 427d8 <warn@@Base+0x35da1>
    c0af:	ff 15 c3 db 04 00    	call   *0x4dbc3(%rip)        # 59c78 <warn@@Base+0x4d241>
    c0b5:	4c 89 e6             	mov    %r12,%rsi
    c0b8:	48 89 c7             	mov    %rax,%rdi
    c0bb:	31 c0                	xor    %eax,%eax
    c0bd:	67 e8 74 09 00 00    	addr32 call ca37 <warn@@Base>
    c0c3:	e9 48 6f 02 00       	jmp    33010 <warn@@Base+0x265d9>
    c0c8:	83 c0 01             	add    $0x1,%eax
    c0cb:	4d 89 ea             	mov    %r13,%r10
    c0ce:	e9 cb fa ff ff       	jmp    bb9e <error@@Base+0x3596>
    c0d3:	83 3d d6 fa 04 00 00 	cmpl   $0x0,0x4fad6(%rip)        # 5bbb0 <warn@@Base+0x4f179>
    c0da:	0f 84 a4 5d 02 00    	je     31e84 <warn@@Base+0x2544d>
    c0e0:	e9 0b 5e 02 00       	jmp    31ef0 <warn@@Base+0x254b9>
    c0e5:	ff 15 f5 dc 04 00    	call   *0x4dcf5(%rip)        # 59de0 <warn@@Base+0x4d3a9>
    c0eb:	89 c7                	mov    %eax,%edi
    c0ed:	ff 15 d5 dd 04 00    	call   *0x4ddd5(%rip)        # 59ec8 <warn@@Base+0x4d491>
    c0f3:	4c 8b ac 24 a8 00 00 	mov    0xa8(%rsp),%r13
    c0fa:	00 
    c0fb:	31 ff                	xor    %edi,%edi
    c0fd:	ba 05 00 00 00       	mov    $0x5,%edx
    c102:	49 89 c7             	mov    %rax,%r15
    c105:	48 8d 35 2c 5d 03 00 	lea    0x35d2c(%rip),%rsi        # 41e38 <warn@@Base+0x35401>
    c10c:	49 8b 5d 00          	mov    0x0(%r13),%rbx
    c110:	ff 15 62 db 04 00    	call   *0x4db62(%rip)        # 59c78 <warn@@Base+0x4d241>
    c116:	4c 89 fa             	mov    %r15,%rdx
    c119:	48 89 c7             	mov    %rax,%rdi
    c11c:	48 89 de             	mov    %rbx,%rsi
    c11f:	31 c0                	xor    %eax,%eax
    c121:	e8 ca e6 02 00       	call   3a7f0 <warn@@Base+0x2ddb9>
    c126:	e9 a0 59 02 00       	jmp    31acb <warn@@Base+0x25094>
    c12b:	4c 8b 44 24 40       	mov    0x40(%rsp),%r8
    c130:	4d 8b 48 30          	mov    0x30(%r8),%r9
    c134:	e9 51 64 02 00       	jmp    3258a <warn@@Base+0x25b53>
    c139:	e9 32 75 02 00       	jmp    33670 <warn@@Base+0x26c39>
    c13e:	4c 8b 05 e3 d9 04 00 	mov    0x4d9e3(%rip),%r8        # 59b28 <warn@@Base+0x4d0f1>
    c145:	4d 89 f5             	mov    %r14,%r13
    c148:	4c 89 e3             	mov    %r12,%rbx
    c14b:	48 8b 2d 0e dd 04 00 	mov    0x4dd0e(%rip),%rbp        # 59e60 <warn@@Base+0x4d429>
    c152:	48 8b bc 24 50 01 00 	mov    0x150(%rsp),%rdi
    c159:	00 
    c15a:	4d 89 e6             	mov    %r12,%r14
    c15d:	4d 8b 18             	mov    (%r8),%r11
    c160:	49 89 6d 00          	mov    %rbp,0x0(%r13)
    c164:	4d 89 5d 08          	mov    %r11,0x8(%r13)
    c168:	ff 15 0a dc 04 00    	call   *0x4dc0a(%rip)        # 59d78 <warn@@Base+0x4d341>
    c16e:	4d 85 f6             	test   %r14,%r14
    c171:	74 20                	je     c193 <error@@Base+0x3b8b>
    c173:	49 8b 2e             	mov    (%r14),%rbp
    c176:	48 85 ed             	test   %rbp,%rbp
    c179:	0f 84 76 01 00 00    	je     c2f5 <error@@Base+0x3ced>
    c17f:	4c 8b 5d 28          	mov    0x28(%rbp),%r11
    c183:	4d 39 5e 28          	cmp    %r11,0x28(%r14)
    c187:	0f 84 43 02 00 00    	je     c3d0 <error@@Base+0x3dc8>
    c18d:	48 8b 6d 00          	mov    0x0(%rbp),%rbp
    c191:	eb e3                	jmp    c176 <error@@Base+0x3b6e>
    c193:	4c 89 6c 24 08       	mov    %r13,0x8(%rsp)
    c198:	49 89 dc             	mov    %rbx,%r12
    c19b:	49 89 dd             	mov    %rbx,%r13
    c19e:	4d 85 ed             	test   %r13,%r13
    c1a1:	74 4d                	je     c1f0 <error@@Base+0x3be8>
    c1a3:	49 8b 5d 00          	mov    0x0(%r13),%rbx
    c1a7:	4c 89 ef             	mov    %r13,%rdi
    c1aa:	4c 89 ed             	mov    %r13,%rbp
    c1ad:	e8 7b 09 01 00       	call   1cb2d <warn@@Base+0x100f6>
    c1b2:	4c 89 e1             	mov    %r12,%rcx
    c1b5:	49 89 de             	mov    %rbx,%r14
    c1b8:	49 89 dc             	mov    %rbx,%r12
    c1bb:	48 89 ca             	mov    %rcx,%rdx
    c1be:	48 89 c3             	mov    %rax,%rbx
    c1c1:	4d 85 f6             	test   %r14,%r14
    c1c4:	0f 84 33 01 00 00    	je     c2fd <error@@Base+0x3cf5>
    c1ca:	4c 89 f7             	mov    %r14,%rdi
    c1cd:	48 89 54 24 10       	mov    %rdx,0x10(%rsp)
    c1d2:	e8 56 09 01 00       	call   1cb2d <warn@@Base+0x100f6>
    c1d7:	48 8b 54 24 10       	mov    0x10(%rsp),%rdx
    c1dc:	48 39 d8             	cmp    %rbx,%rax
    c1df:	0f 83 27 02 00 00    	jae    c40c <error@@Base+0x3e04>
    c1e5:	48 89 c3             	mov    %rax,%rbx
    c1e8:	4c 89 f5             	mov    %r14,%rbp
    c1eb:	4d 8b 36             	mov    (%r14),%r14
    c1ee:	eb d1                	jmp    c1c1 <error@@Base+0x3bb9>
    c1f0:	4c 89 e5             	mov    %r12,%rbp
    c1f3:	41 83 ce ff          	or     $0xffffffff,%r14d
    c1f7:	48 85 ed             	test   %rbp,%rbp
    c1fa:	74 4d                	je     c249 <error@@Base+0x3c41>
    c1fc:	41 83 c6 01          	add    $0x1,%r14d
    c200:	48 8b 55 00          	mov    0x0(%rbp),%rdx
    c204:	44 89 75 30          	mov    %r14d,0x30(%rbp)
    c208:	48 89 d0             	mov    %rdx,%rax
    c20b:	48 85 c0             	test   %rax,%rax
    c20e:	0f 84 bb 03 00 00    	je     c5cf <error@@Base+0x3fc7>
    c214:	48 89 e9             	mov    %rbp,%rcx
    c217:	48 39 d1             	cmp    %rdx,%rcx
    c21a:	0f 84 b7 03 00 00    	je     c5d7 <error@@Base+0x3fcf>
    c220:	48 8b 79 28          	mov    0x28(%rcx),%rdi
    c224:	4c 8b 49 18          	mov    0x18(%rcx),%r9
    c228:	49 89 fb             	mov    %rdi,%r11
    c22b:	4c 89 ce             	mov    %r9,%rsi
    c22e:	48 83 ee 01          	sub    $0x1,%rsi
    c232:	0f 82 03 04 00 00    	jb     c63b <error@@Base+0x4033>
    c238:	4c 8b 41 10          	mov    0x10(%rcx),%r8
    c23c:	49 8b 1c f0          	mov    (%r8,%rsi,8),%rbx
    c240:	49 39 db             	cmp    %rbx,%r11
    c243:	4c 0f 42 db          	cmovb  %rbx,%r11
    c247:	eb e5                	jmp    c22e <error@@Base+0x3c26>
    c249:	4c 89 25 58 f9 04 00 	mov    %r12,0x4f958(%rip)        # 5bba8 <warn@@Base+0x4f171>
    c250:	4c 8b 6c 24 08       	mov    0x8(%rsp),%r13
    c255:	48 8b bc 24 30 01 00 	mov    0x130(%rsp),%rdi
    c25c:	00 
    c25d:	ff 15 15 db 04 00    	call   *0x4db15(%rip)        # 59d78 <warn@@Base+0x4d341>
    c263:	e9 c0 5e 02 00       	jmp    32128 <warn@@Base+0x256f1>
    c268:	48 89 e8             	mov    %rbp,%rax
    c26b:	31 d2                	xor    %edx,%edx
    c26d:	48 8b 6c 24 40       	mov    0x40(%rsp),%rbp
    c272:	48 8b 8c 24 e8 00 00 	mov    0xe8(%rsp),%rcx
    c279:	00 
    c27a:	48 f7 74 24 48       	divq   0x48(%rsp)
    c27f:	8b b4 24 f8 00 00 00 	mov    0xf8(%rsp),%esi
    c286:	48 8b 94 24 88 00 00 	mov    0x88(%rsp),%rdx
    c28d:	00 
    c28e:	48 03 45 30          	add    0x30(%rbp),%rax
    c292:	48 89 c7             	mov    %rax,%rdi
    c295:	e8 05 31 00 00       	call   f39f <warn@@Base+0x2968>
    c29a:	e9 70 73 02 00       	jmp    3360f <warn@@Base+0x26bd8>
    c29f:	48 8b 74 24 50       	mov    0x50(%rsp),%rsi
    c2a4:	4a 8d 2c 06          	lea    (%rsi,%r8,1),%rbp
    c2a8:	49 89 ae f0 00 00 00 	mov    %rbp,0xf0(%r14)
    c2af:	e9 10 fd ff ff       	jmp    bfc4 <error@@Base+0x39bc>
    c2b4:	48 8b 01             	mov    (%rcx),%rax
    c2b7:	48 8b 78 08          	mov    0x8(%rax),%rdi
    c2bb:	48 2b bc 24 c0 00 00 	sub    0xc0(%rsp),%rdi
    c2c2:	00 
    c2c3:	4c 29 ef             	sub    %r13,%rdi
    c2c6:	48 85 ff             	test   %rdi,%rdi
    c2c9:	75 0f                	jne    c2da <error@@Base+0x3cd2>
    c2cb:	41 ba 00 00 00 80    	mov    $0x80000000,%r10d
    c2d1:	4d 09 56 58          	or     %r10,0x58(%r14)
    c2d5:	e9 c9 fc ff ff       	jmp    bfa3 <error@@Base+0x399b>
    c2da:	0f 8e c3 fc ff ff    	jle    bfa3 <error@@Base+0x399b>
    c2e0:	8b 44 24 08          	mov    0x8(%rsp),%eax
    c2e4:	31 d2                	xor    %edx,%edx
    c2e6:	f7 74 24 10          	divl   0x10(%rsp)
    c2ea:	48 39 c7             	cmp    %rax,%rdi
    c2ed:	0f 8d b0 fc ff ff    	jge    bfa3 <error@@Base+0x399b>
    c2f3:	eb d6                	jmp    c2cb <error@@Base+0x3cc3>
    c2f5:	4d 8b 36             	mov    (%r14),%r14
    c2f8:	e9 71 fe ff ff       	jmp    c16e <error@@Base+0x3b66>
    c2fd:	4d 89 e6             	mov    %r12,%r14
    c300:	49 89 d4             	mov    %rdx,%r12
    c303:	49 39 ed             	cmp    %rbp,%r13
    c306:	75 08                	jne    c310 <error@@Base+0x3d08>
    c308:	4d 89 f5             	mov    %r14,%r13
    c30b:	e9 8e fe ff ff       	jmp    c19e <error@@Base+0x3b96>
    c310:	48 8b 45 00          	mov    0x0(%rbp),%rax
    c314:	48 8b 7d 08          	mov    0x8(%rbp),%rdi
    c318:	48 85 c0             	test   %rax,%rax
    c31b:	74 04                	je     c321 <error@@Base+0x3d19>
    c31d:	48 89 78 08          	mov    %rdi,0x8(%rax)
    c321:	4c 8b 4d 08          	mov    0x8(%rbp),%r9
    c325:	4d 85 c9             	test   %r9,%r9
    c328:	74 06                	je     c330 <error@@Base+0x3d28>
    c32a:	49 89 01             	mov    %rax,(%r9)
    c32d:	4c 89 e0             	mov    %r12,%rax
    c330:	48 c7 45 08 00 00 00 	movq   $0x0,0x8(%rbp)
    c337:	00 
    c338:	4d 8b 65 08          	mov    0x8(%r13),%r12
    c33c:	4c 89 6d 00          	mov    %r13,0x0(%rbp)
    c340:	4c 89 65 08          	mov    %r12,0x8(%rbp)
    c344:	49 89 6d 08          	mov    %rbp,0x8(%r13)
    c348:	4c 8b 55 08          	mov    0x8(%rbp),%r10
    c34c:	4d 85 d2             	test   %r10,%r10
    c34f:	74 06                	je     c357 <error@@Base+0x3d4f>
    c351:	49 89 2a             	mov    %rbp,(%r10)
    c354:	48 89 c5             	mov    %rax,%rbp
    c357:	49 89 ec             	mov    %rbp,%r12
    c35a:	e9 3f fe ff ff       	jmp    c19e <error@@Base+0x3b96>
    c35f:	48 89 54 24 38       	mov    %rdx,0x38(%rsp)
    c364:	bf 38 00 00 00       	mov    $0x38,%edi
    c369:	4c 01 ed             	add    %r13,%rbp
    c36c:	ff 15 b6 da 04 00    	call   *0x4dab6(%rip)        # 59e28 <warn@@Base+0x4d3f1>
    c372:	66 0f ef d2          	pxor   %xmm2,%xmm2
    c376:	bf 10 00 00 00       	mov    $0x10,%edi
    c37b:	48 89 44 24 30       	mov    %rax,0x30(%rsp)
    c380:	0f 11 10             	movups %xmm2,(%rax)
    c383:	ff 15 9f da 04 00    	call   *0x4da9f(%rip)        # 59e28 <warn@@Base+0x4d3f1>
    c389:	4c 8b 4c 24 30       	mov    0x30(%rsp),%r9
    c38e:	48 8b 4c 24 38       	mov    0x38(%rsp),%rcx
    c393:	66 0f 6f 1d b5 72 03 	movdqa 0x372b5(%rip),%xmm3        # 43650 <warn@@Base+0x36c19>
    c39a:	00 
    c39b:	48 89 28             	mov    %rbp,(%rax)
    c39e:	49 89 41 10          	mov    %rax,0x10(%r9)
    c3a2:	49 89 49 28          	mov    %rcx,0x28(%r9)
    c3a6:	41 c7 41 30 ff ff ff 	movl   $0xffffffff,0x30(%r9)
    c3ad:	ff 
    c3ae:	4d 89 21             	mov    %r12,(%r9)
    c3b1:	41 0f 11 59 18       	movups %xmm3,0x18(%r9)
    c3b6:	4d 85 e4             	test   %r12,%r12
    c3b9:	74 05                	je     c3c0 <error@@Base+0x3db8>
    c3bb:	4d 89 4c 24 08       	mov    %r9,0x8(%r12)
    c3c0:	49 c7 41 08 00 00 00 	movq   $0x0,0x8(%r9)
    c3c7:	00 
    c3c8:	4d 89 cc             	mov    %r9,%r12
    c3cb:	e9 5f fc ff ff       	jmp    c02f <error@@Base+0x3a27>
    c3d0:	4d 8b 46 20          	mov    0x20(%r14),%r8
    c3d4:	48 8b 55 18          	mov    0x18(%rbp),%rdx
    c3d8:	49 03 56 18          	add    0x18(%r14),%rdx
    c3dc:	4c 39 c2             	cmp    %r8,%rdx
    c3df:	77 50                	ja     c431 <error@@Base+0x3e29>
    c3e1:	45 31 e4             	xor    %r12d,%r12d
    c3e4:	4c 3b 65 18          	cmp    0x18(%rbp),%r12
    c3e8:	73 67                	jae    c451 <error@@Base+0x3e49>
    c3ea:	49 8b 46 18          	mov    0x18(%r14),%rax
    c3ee:	4c 8b 4d 10          	mov    0x10(%rbp),%r9
    c3f2:	49 8b 4e 10          	mov    0x10(%r14),%rcx
    c3f6:	48 8d 78 01          	lea    0x1(%rax),%rdi
    c3fa:	49 89 7e 18          	mov    %rdi,0x18(%r14)
    c3fe:	4f 8b 14 e1          	mov    (%r9,%r12,8),%r10
    c402:	49 83 c4 01          	add    $0x1,%r12
    c406:	4c 89 14 c1          	mov    %r10,(%rcx,%rax,8)
    c40a:	eb d8                	jmp    c3e4 <error@@Base+0x3ddc>
    c40c:	0f 85 d9 fd ff ff    	jne    c1eb <error@@Base+0x3be3>
    c412:	4d 8b 46 28          	mov    0x28(%r14),%r8
    c416:	4d 8b 4e 18          	mov    0x18(%r14),%r9
    c41a:	49 83 e9 01          	sub    $0x1,%r9
    c41e:	72 74                	jb     c494 <error@@Base+0x3e8c>
    c420:	49 8b 46 10          	mov    0x10(%r14),%rax
    c424:	4e 8b 14 c8          	mov    (%rax,%r9,8),%r10
    c428:	4d 39 d0             	cmp    %r10,%r8
    c42b:	4d 0f 47 c2          	cmova  %r10,%r8
    c42f:	eb e9                	jmp    c41a <error@@Base+0x3e12>
    c431:	4c 03 45 20          	add    0x20(%rbp),%r8
    c435:	49 8b 7e 10          	mov    0x10(%r14),%rdi
    c439:	4d 89 46 20          	mov    %r8,0x20(%r14)
    c43d:	4a 8d 34 c5 00 00 00 	lea    0x0(,%r8,8),%rsi
    c444:	00 
    c445:	ff 15 d5 d9 04 00    	call   *0x4d9d5(%rip)        # 59e20 <warn@@Base+0x4d3e9>
    c44b:	49 89 46 10          	mov    %rax,0x10(%r14)
    c44f:	eb 90                	jmp    c3e1 <error@@Base+0x3dd9>
    c451:	48 8b 75 08          	mov    0x8(%rbp),%rsi
    c455:	4c 8b 65 00          	mov    0x0(%rbp),%r12
    c459:	48 89 74 24 08       	mov    %rsi,0x8(%rsp)
    c45e:	4d 85 e4             	test   %r12,%r12
    c461:	74 09                	je     c46c <error@@Base+0x3e64>
    c463:	49 89 74 24 08       	mov    %rsi,0x8(%r12)
    c468:	48 8b 75 08          	mov    0x8(%rbp),%rsi
    c46c:	48 85 f6             	test   %rsi,%rsi
    c46f:	74 06                	je     c477 <error@@Base+0x3e6f>
    c471:	4c 89 26             	mov    %r12,(%rsi)
    c474:	49 89 dc             	mov    %rbx,%r12
    c477:	66 0f ef e4          	pxor   %xmm4,%xmm4
    c47b:	48 89 ef             	mov    %rbp,%rdi
    c47e:	4c 89 e3             	mov    %r12,%rbx
    c481:	0f 11 65 00          	movups %xmm4,0x0(%rbp)
    c485:	e8 6d 06 01 00       	call   1caf7 <warn@@Base+0x100c0>
    c48a:	48 8b 6c 24 08       	mov    0x8(%rsp),%rbp
    c48f:	e9 f9 fc ff ff       	jmp    c18d <error@@Base+0x3b85>
    c494:	4c 8b 5d 28          	mov    0x28(%rbp),%r11
    c498:	48 8b 75 18          	mov    0x18(%rbp),%rsi
    c49c:	48 83 ee 01          	sub    $0x1,%rsi
    c4a0:	0f 82 d8 00 00 00    	jb     c57e <error@@Base+0x3f76>
    c4a6:	48 8b 4d 10          	mov    0x10(%rbp),%rcx
    c4aa:	48 8b 3c f1          	mov    (%rcx,%rsi,8),%rdi
    c4ae:	49 39 fb             	cmp    %rdi,%r11
    c4b1:	4c 0f 47 df          	cmova  %rdi,%r11
    c4b5:	eb e5                	jmp    c49c <error@@Base+0x3e94>
    c4b7:	48 8b bc 24 a0 00 00 	mov    0xa0(%rsp),%rdi
    c4be:	00 
    c4bf:	0f b6 9c 24 d3 00 00 	movzbl 0xd3(%rsp),%ebx
    c4c6:	00 
    c4c7:	48 8b 57 20          	mov    0x20(%rdi),%rdx
    c4cb:	4c 8b 77 10          	mov    0x10(%rdi),%r14
    c4cf:	e9 1c 5a 02 00       	jmp    31ef0 <warn@@Base+0x254b9>
    c4d4:	e8 1e 06 01 00       	call   1caf7 <warn@@Base+0x100c0>
    c4d9:	48 89 05 c8 f6 04 00 	mov    %rax,0x4f6c8(%rip)        # 5bba8 <warn@@Base+0x4f171>
    c4e0:	48 89 c7             	mov    %rax,%rdi
    c4e3:	48 85 c0             	test   %rax,%rax
    c4e6:	75 ec                	jne    c4d4 <error@@Base+0x3ecc>
    c4e8:	e9 e0 63 02 00       	jmp    328cd <warn@@Base+0x25e96>
    c4ed:	bf 09 00 00 00       	mov    $0x9,%edi
    c4f2:	ff 15 48 d9 04 00    	call   *0x4d948(%rip)        # 59e40 <warn@@Base+0x4d409>
    c4f8:	e9 03 71 02 00       	jmp    33600 <warn@@Base+0x26bc9>
    c4fd:	48 8b 6c 24 70       	mov    0x70(%rsp),%rbp
    c502:	4c 8b 92 d0 00 00 00 	mov    0xd0(%rdx),%r10
    c509:	4c 8b 5c 24 18       	mov    0x18(%rsp),%r11
    c50e:	4c 03 9c 24 c0 00 00 	add    0xc0(%rsp),%r11
    c515:	00 
    c516:	48 8b 7d 00          	mov    0x0(%rbp),%rdi
    c51a:	4d 63 42 50          	movslq 0x50(%r10),%r8
    c51e:	4c 8b 67 08          	mov    0x8(%rdi),%r12
    c522:	4d 29 dc             	sub    %r11,%r12
    c525:	4d 85 e4             	test   %r12,%r12
    c528:	7e 60                	jle    c58a <error@@Base+0x3f82>
    c52a:	45 85 c0             	test   %r8d,%r8d
    c52d:	78 05                	js     c534 <error@@Base+0x3f2c>
    c52f:	4d 39 c4             	cmp    %r8,%r12
    c532:	7f 66                	jg     c59a <error@@Base+0x3f92>
    c534:	48 8b 6c 24 40       	mov    0x40(%rsp),%rbp
    c539:	48 8b 7c 24 18       	mov    0x18(%rsp),%rdi
    c53e:	8b 05 e4 19 05 00    	mov    0x519e4(%rip),%eax        # 5df28 <warn@@Base+0x514f1>
    c544:	4c 8b 4d 30          	mov    0x30(%rbp),%r9
    c548:	4c 01 cf             	add    %r9,%rdi
    c54b:	85 c0                	test   %eax,%eax
    c54d:	74 59                	je     c5a8 <error@@Base+0x3fa0>
    c54f:	99                   	cltd   
    c550:	f7 bc 24 98 00 00 00 	idivl  0x98(%rsp)
    c557:	48 98                	cltq   
    c559:	49 39 c4             	cmp    %rax,%r12
    c55c:	0f 8d 28 60 02 00    	jge    3258a <warn@@Base+0x25b53>
    c562:	48 8b 4c 24 70       	mov    0x70(%rsp),%rcx
    c567:	48 8b 39             	mov    (%rcx),%rdi
    c56a:	4c 8b 54 24 58       	mov    0x58(%rsp),%r10
    c56f:	49 0f ba 6e 58 1f    	btsq   $0x1f,0x58(%r14)
    c575:	49 89 7a 18          	mov    %rdi,0x18(%r10)
    c579:	e9 0c 60 02 00       	jmp    3258a <warn@@Base+0x25b53>
    c57e:	4d 39 d8             	cmp    %r11,%r8
    c581:	49 0f 42 ee          	cmovb  %r14,%rbp
    c585:	e9 61 fc ff ff       	jmp    c1eb <error@@Base+0x3be3>
    c58a:	48 8b 5c 24 40       	mov    0x40(%rsp),%rbx
    c58f:	4c 8b 4b 30          	mov    0x30(%rbx),%r9
    c593:	74 d5                	je     c56a <error@@Base+0x3f62>
    c595:	e9 f0 5f 02 00       	jmp    3258a <warn@@Base+0x25b53>
    c59a:	4c 8b 6c 24 40       	mov    0x40(%rsp),%r13
    c59f:	4d 8b 4d 30          	mov    0x30(%r13),%r9
    c5a3:	e9 e2 5f 02 00       	jmp    3258a <warn@@Base+0x25b53>
    c5a8:	48 8d 35 cc f1 00 00 	lea    0xf1cc(%rip),%rsi        # 1b77b <warn@@Base+0xed44>
    c5af:	48 8b 84 24 90 00 00 	mov    0x90(%rsp),%rax
    c5b6:	00 
    c5b7:	49 89 36             	mov    %rsi,(%r14)
    c5ba:	4c 89 f6             	mov    %r14,%rsi
    c5bd:	ff d0                	call   *%rax
    c5bf:	0f b6 35 2b 19 05 00 	movzbl 0x5192b(%rip),%esi        # 5def1 <warn@@Base+0x514ba>
    c5c6:	4c 8b 4d 30          	mov    0x30(%rbp),%r9
    c5ca:	49 89 1e             	mov    %rbx,(%r14)
    c5cd:	eb 80                	jmp    c54f <error@@Base+0x3f47>
    c5cf:	48 89 d5             	mov    %rdx,%rbp
    c5d2:	e9 20 fc ff ff       	jmp    c1f7 <error@@Base+0x3bef>
    c5d7:	4c 8b 28             	mov    (%rax),%r13
    c5da:	48 39 d0             	cmp    %rdx,%rax
    c5dd:	74 54                	je     c633 <error@@Base+0x402b>
    c5df:	4c 8b 48 08          	mov    0x8(%rax),%r9
    c5e3:	4d 89 ca             	mov    %r9,%r10
    c5e6:	4d 85 ed             	test   %r13,%r13
    c5e9:	74 08                	je     c5f3 <error@@Base+0x3feb>
    c5eb:	4d 89 4d 08          	mov    %r9,0x8(%r13)
    c5ef:	4c 8b 48 08          	mov    0x8(%rax),%r9
    c5f3:	4d 85 c9             	test   %r9,%r9
    c5f6:	74 06                	je     c5fe <error@@Base+0x3ff6>
    c5f8:	4d 89 29             	mov    %r13,(%r9)
    c5fb:	4d 89 e5             	mov    %r12,%r13
    c5fe:	48 c7 40 08 00 00 00 	movq   $0x0,0x8(%rax)
    c605:	00 
    c606:	48 8b 4a 08          	mov    0x8(%rdx),%rcx
    c60a:	48 89 10             	mov    %rdx,(%rax)
    c60d:	48 89 48 08          	mov    %rcx,0x8(%rax)
    c611:	48 89 42 08          	mov    %rax,0x8(%rdx)
    c615:	48 8b 58 08          	mov    0x8(%rax),%rbx
    c619:	48 85 db             	test   %rbx,%rbx
    c61c:	74 43                	je     c661 <error@@Base+0x4059>
    c61e:	48 89 03             	mov    %rax,(%rbx)
    c621:	4d 89 ec             	mov    %r13,%r12
    c624:	44 89 70 30          	mov    %r14d,0x30(%rax)
    c628:	4c 89 d0             	mov    %r10,%rax
    c62b:	48 8b 00             	mov    (%rax),%rax
    c62e:	e9 d8 fb ff ff       	jmp    c20b <error@@Base+0x3c03>
    c633:	49 89 c2             	mov    %rax,%r10
    c636:	4c 89 ea             	mov    %r13,%rdx
    c639:	eb e9                	jmp    c624 <error@@Base+0x401c>
    c63b:	48 8b 70 28          	mov    0x28(%rax),%rsi
    c63f:	4c 8b 40 18          	mov    0x18(%rax),%r8
    c643:	49 89 f2             	mov    %rsi,%r10
    c646:	4c 89 c3             	mov    %r8,%rbx
    c649:	48 83 eb 01          	sub    $0x1,%rbx
    c64d:	72 17                	jb     c666 <error@@Base+0x405e>
    c64f:	4c 8b 68 10          	mov    0x10(%rax),%r13
    c653:	4d 8b 6c dd 00       	mov    0x0(%r13,%rbx,8),%r13
    c658:	4d 39 ea             	cmp    %r13,%r10
    c65b:	4d 0f 47 d5          	cmova  %r13,%r10
    c65f:	eb e8                	jmp    c649 <error@@Base+0x4041>
    c661:	49 89 c4             	mov    %rax,%r12
    c664:	eb be                	jmp    c624 <error@@Base+0x401c>
    c666:	4d 39 d3             	cmp    %r10,%r11
    c669:	72 31                	jb     c69c <error@@Base+0x4094>
    c66b:	49 83 e9 01          	sub    $0x1,%r9
    c66f:	72 20                	jb     c691 <error@@Base+0x4089>
    c671:	4c 8b 51 10          	mov    0x10(%rcx),%r10
    c675:	4b 8b 1c ca          	mov    (%r10,%r9,8),%rbx
    c679:	48 39 df             	cmp    %rbx,%rdi
    c67c:	48 0f 47 fb          	cmova  %rbx,%rdi
    c680:	eb e9                	jmp    c66b <error@@Base+0x4063>
    c682:	4c 8b 58 10          	mov    0x10(%rax),%r11
    c686:	4f 8b 2c c3          	mov    (%r11,%r8,8),%r13
    c68a:	4c 39 ee             	cmp    %r13,%rsi
    c68d:	49 0f 42 f5          	cmovb  %r13,%rsi
    c691:	49 83 e8 01          	sub    $0x1,%r8
    c695:	73 eb                	jae    c682 <error@@Base+0x407a>
    c697:	48 39 f7             	cmp    %rsi,%rdi
    c69a:	76 8f                	jbe    c62b <error@@Base+0x4023>
    c69c:	48 8b 09             	mov    (%rcx),%rcx
    c69f:	e9 73 fb ff ff       	jmp    c217 <error@@Base+0x3c0f>
    c6a4:	4d 8b 68 10          	mov    0x10(%r8),%r13
    c6a8:	e9 5a 72 02 00       	jmp    33907 <warn@@Base+0x26ed0>
    c6ad:	48 39 d0             	cmp    %rdx,%rax
    c6b0:	0f 87 7b f5 02 00    	ja     3bc31 <warn@@Base+0x2f1fa>
    c6b6:	e9 a9 f5 02 00       	jmp    3bc64 <warn@@Base+0x2f22d>
    c6bb:	48 89 54 24 30       	mov    %rdx,0x30(%rsp)
    c6c0:	48 89 d7             	mov    %rdx,%rdi
    c6c3:	48 8d 35 03 44 03 00 	lea    0x34403(%rip),%rsi        # 40acd <warn@@Base+0x34096>
    c6ca:	45 31 ed             	xor    %r13d,%r13d
    c6cd:	ff 15 75 d7 04 00    	call   *0x4d775(%rip)        # 59e48 <warn@@Base+0x4d411>
    c6d3:	48 8b 54 24 30       	mov    0x30(%rsp),%rdx
    c6d8:	85 c0                	test   %eax,%eax
    c6da:	0f 85 2a f6 02 00    	jne    3bd0a <warn@@Base+0x2f2d3>
    c6e0:	4d 8b 54 24 08       	mov    0x8(%r12),%r10
    c6e5:	4d 85 d2             	test   %r10,%r10
    c6e8:	0f 84 1c f6 02 00    	je     3bd0a <warn@@Base+0x2f2d3>
    c6ee:	4d 8b 5a 18          	mov    0x18(%r10),%r11
    c6f2:	4d 85 db             	test   %r11,%r11
    c6f5:	0f 84 0f f6 02 00    	je     3bd0a <warn@@Base+0x2f2d3>
    c6fb:	49 8b 42 08          	mov    0x8(%r10),%rax
    c6ff:	49 39 47 08          	cmp    %rax,0x8(%r15)
    c703:	0f 85 01 f6 02 00    	jne    3bd0a <warn@@Base+0x2f2d3>
    c709:	4c 89 54 24 38       	mov    %r10,0x38(%rsp)
    c70e:	49 8b 7b 20          	mov    0x20(%r11),%rdi
    c712:	48 8d 35 c1 43 03 00 	lea    0x343c1(%rip),%rsi        # 40ada <warn@@Base+0x340a3>
    c719:	ff 15 29 d7 04 00    	call   *0x4d729(%rip)        # 59e48 <warn@@Base+0x4d411>
    c71f:	48 8b 54 24 30       	mov    0x30(%rsp),%rdx
    c724:	85 c0                	test   %eax,%eax
    c726:	0f 85 de f5 02 00    	jne    3bd0a <warn@@Base+0x2f2d3>
    c72c:	48 8b 54 24 38       	mov    0x38(%rsp),%rdx
    c731:	49 83 c4 08          	add    $0x8,%r12
    c735:	4c 8b 6a 10          	mov    0x10(%rdx),%r13
    c739:	48 8d 15 4f 43 03 00 	lea    0x3434f(%rip),%rdx        # 40a8f <warn@@Base+0x34058>
    c740:	e9 c5 f5 02 00       	jmp    3bd0a <warn@@Base+0x2f2d3>
    c745:	41 8b 55 00          	mov    0x0(%r13),%edx
    c749:	48 8d 35 95 43 03 00 	lea    0x34395(%rip),%rsi        # 40ae5 <warn@@Base+0x340ae>
    c750:	bf 01 00 00 00       	mov    $0x1,%edi
    c755:	31 c0                	xor    %eax,%eax
    c757:	ff 15 ab d3 04 00    	call   *0x4d3ab(%rip)        # 59b08 <warn@@Base+0x4d0d1>
    c75d:	45 31 ed             	xor    %r13d,%r13d
    c760:	e9 b9 f5 02 00       	jmp    3bd1e <warn@@Base+0x2f2e7>
    c765:	45 31 ed             	xor    %r13d,%r13d
    c768:	e9 9d f5 02 00       	jmp    3bd0a <warn@@Base+0x2f2d3>
    c76d:	48 8d 35 45 43 03 00 	lea    0x34345(%rip),%rsi        # 40ab9 <warn@@Base+0x34082>
    c774:	bf 01 00 00 00       	mov    $0x1,%edi
    c779:	31 c0                	xor    %eax,%eax
    c77b:	45 31 ed             	xor    %r13d,%r13d
    c77e:	ff 15 84 d3 04 00    	call   *0x4d384(%rip)        # 59b08 <warn@@Base+0x4d0d1>
    c784:	e9 95 f5 02 00       	jmp    3bd1e <warn@@Base+0x2f2e7>
    c789:	48 8d 35 dd 42 03 00 	lea    0x342dd(%rip),%rsi        # 40a6d <warn@@Base+0x34036>
    c790:	bf 01 00 00 00       	mov    $0x1,%edi
    c795:	31 c0                	xor    %eax,%eax
    c797:	ff 15 6b d3 04 00    	call   *0x4d36b(%rip)        # 59b08 <warn@@Base+0x4d0d1>
    c79d:	4c 89 ea             	mov    %r13,%rdx
    c7a0:	4c 8b 2d 81 d3 04 00 	mov    0x4d381(%rip),%r13        # 59b28 <warn@@Base+0x4d0f1>
    c7a7:	48 89 df             	mov    %rbx,%rdi
    c7aa:	49 8b 75 00          	mov    0x0(%r13),%rsi
    c7ae:	ff 15 a4 d3 04 00    	call   *0x4d3a4(%rip)        # 59b58 <warn@@Base+0x4d121>
    c7b4:	e9 6d f4 02 00       	jmp    3bc26 <warn@@Base+0x2f1ef>
    c7b9:	48 c7 44 24 08 00 00 	movq   $0x0,0x8(%rsp)
    c7c0:	00 00 
